---
triple:          'arm64-apple-darwin'
binary-path:     "/Users/crush/Documents/实验/人工智能/lab1/Astar/src/Astar"
relocations:
  - { offsetInCU: 0xDE, offset: 0xDE, size: 0x8, addend: 0x0, symName: __ZSt23__is_constant_evaluatedv, symObjAddr: 0x0, symBinAddr: 0x1000008D0, symSize: 0x8 }
  - { offsetInCU: 0xE6, offset: 0xE6, size: 0x8, addend: 0x0, symName: __ZSt19piecewise_construct, symObjAddr: 0x6610, symBinAddr: 0x100007EE0, symSize: 0x0 }
  - { offsetInCU: 0x648, offset: 0x648, size: 0x8, addend: 0x0, symName: __ZSt19piecewise_construct, symObjAddr: 0x6610, symBinAddr: 0x100007EE0, symSize: 0x0 }
  - { offsetInCU: 0x6F93, offset: 0x6F93, size: 0x8, addend: 0x0, symName: __ZStL8__ioinit, symObjAddr: 0x5EC50, symBinAddr: 0x1000101F0, symSize: 0x0 }
  - { offsetInCU: 0x1224D, offset: 0x1224D, size: 0x8, addend: 0x0, symName: __ZNSt8__detail30__integer_to_chars_is_unsignedIjEE, symObjAddr: 0x6611, symBinAddr: 0x100007EE1, symSize: 0x0 }
  - { offsetInCU: 0x12267, offset: 0x12267, size: 0x8, addend: 0x0, symName: __ZNSt8__detail30__integer_to_chars_is_unsignedImEE, symObjAddr: 0x6612, symBinAddr: 0x100007EE2, symSize: 0x0 }
  - { offsetInCU: 0x12281, offset: 0x12281, size: 0x8, addend: 0x0, symName: __ZNSt8__detail30__integer_to_chars_is_unsignedIyEE, symObjAddr: 0x6613, symBinAddr: 0x100007EE3, symSize: 0x0 }
  - { offsetInCU: 0x122D7, offset: 0x122D7, size: 0x8, addend: 0x0, symName: __GLOBAL__sub_I_Astar.cpp, symObjAddr: 0x65FC, symBinAddr: 0x100006ECC, symSize: 0x14 }
  - { offsetInCU: 0x122DF, offset: 0x122DF, size: 0x8, addend: 0x0, symName: __ZSt19piecewise_construct, symObjAddr: 0x6610, symBinAddr: 0x100007EE0, symSize: 0x0 }
  - { offsetInCU: 0x12302, offset: 0x12302, size: 0x8, addend: 0x0, symName: __Z41__static_initialization_and_destruction_0v, symObjAddr: 0x65C0, symBinAddr: 0x100006E90, symSize: 0x3C }
  - { offsetInCU: 0x1230A, offset: 0x1230A, size: 0x8, addend: 0x0, symName: __GLOBAL__sub_I_Astar.cpp, symObjAddr: 0x65FC, symBinAddr: 0x100006ECC, symSize: 0x14 }
  - { offsetInCU: 0x122F4, offset: 0x122F4, size: 0x8, addend: 0x0, symName: __ZNSt10_Head_baseILm0EOSt4pairIiiELb0EE7_M_headERS3_, symObjAddr: 0x65A8, symBinAddr: 0x100006E78, symSize: 0x18 }
  - { offsetInCU: 0x122FC, offset: 0x122FC, size: 0x8, addend: 0x0, symName: __Z41__static_initialization_and_destruction_0v, symObjAddr: 0x65C0, symBinAddr: 0x100006E90, symSize: 0x3C }
  - { offsetInCU: 0x12325, offset: 0x12325, size: 0x8, addend: 0x0, symName: __ZNSt11_Tuple_implILm0EJOSt4pairIiiEEE7_M_headERS3_, symObjAddr: 0x658C, symBinAddr: 0x100006E5C, symSize: 0x1C }
  - { offsetInCU: 0x1232D, offset: 0x1232D, size: 0x8, addend: 0x0, symName: __ZNSt10_Head_baseILm0EOSt4pairIiiELb0EE7_M_headERS3_, symObjAddr: 0x65A8, symBinAddr: 0x100006E78, symSize: 0x18 }
  - { offsetInCU: 0x123CE, offset: 0x123CE, size: 0x8, addend: 0x0, symName: __ZSt12__get_helperILm0EOSt4pairIiiEJEERT0_RSt11_Tuple_implIXT_EJS3_DpT1_EE, symObjAddr: 0x6570, symBinAddr: 0x100006E40, symSize: 0x1C }
  - { offsetInCU: 0x123D6, offset: 0x123D6, size: 0x8, addend: 0x0, symName: __ZNSt11_Tuple_implILm0EJOSt4pairIiiEEE7_M_headERS3_, symObjAddr: 0x658C, symBinAddr: 0x100006E5C, symSize: 0x1C }
  - { offsetInCU: 0x12418, offset: 0x12418, size: 0x8, addend: 0x0, symName: __ZSt7forwardIOSt4pairIiiEEOT_RNSt16remove_referenceIS3_E4typeE, symObjAddr: 0x655C, symBinAddr: 0x100006E2C, symSize: 0x14 }
  - { offsetInCU: 0x12420, offset: 0x12420, size: 0x8, addend: 0x0, symName: __ZSt12__get_helperILm0EOSt4pairIiiEJEERT0_RSt11_Tuple_implIXT_EJS3_DpT1_EE, symObjAddr: 0x6570, symBinAddr: 0x100006E40, symSize: 0x1C }
  - { offsetInCU: 0x1247E, offset: 0x1247E, size: 0x8, addend: 0x0, symName: __ZSt3getILm0EJOSt4pairIiiEEERNSt13tuple_elementIXT_ESt5tupleIJDpT0_EEE4typeERS7_, symObjAddr: 0x6540, symBinAddr: 0x100006E10, symSize: 0x1C }
  - { offsetInCU: 0x12486, offset: 0x12486, size: 0x8, addend: 0x0, symName: __ZSt7forwardIOSt4pairIiiEEOT_RNSt16remove_referenceIS3_E4typeE, symObjAddr: 0x655C, symBinAddr: 0x100006E2C, symSize: 0x14 }
  - { offsetInCU: 0x12466, offset: 0x12466, size: 0x8, addend: 0x0, symName: __ZNSt11__copy_moveILb0ELb0ESt26random_access_iterator_tagE12__assign_oneIP11Search_CellKS4_EEvPT_PT0_, symObjAddr: 0x6518, symBinAddr: 0x100006DE8, symSize: 0x28 }
  - { offsetInCU: 0x1246E, offset: 0x1246E, size: 0x8, addend: 0x0, symName: __ZSt3getILm0EJOSt4pairIiiEEERNSt13tuple_elementIXT_ESt5tupleIJDpT0_EEE4typeERS7_, symObjAddr: 0x6540, symBinAddr: 0x100006E10, symSize: 0x1C }
  - { offsetInCU: 0x125B3, offset: 0x125B3, size: 0x8, addend: 0x0, symName: __ZNSt4pairIKS_IiiEcEC1IJOS0_EJLm0EEJEJEEERSt5tupleIJDpT_EERS5_IJDpT1_EESt12_Index_tupleIJXspT0_EEESE_IJXspT2_EEE, symObjAddr: 0x64CC, symBinAddr: 0x100006D9C, symSize: 0x4C }
  - { offsetInCU: 0x125BB, offset: 0x125BB, size: 0x8, addend: 0x0, symName: __ZNSt11__copy_moveILb0ELb0ESt26random_access_iterator_tagE12__assign_oneIP11Search_CellKS4_EEvPT_PT0_, symObjAddr: 0x6518, symBinAddr: 0x100006DE8, symSize: 0x28 }
  - { offsetInCU: 0x12622, offset: 0x12622, size: 0x8, addend: 0x0, symName: __ZNSt11__copy_moveILb0ELb1ESt26random_access_iterator_tagE8__copy_mIKP11Search_CellS4_EEPT0_PT_S9_S7_, symObjAddr: 0x643C, symBinAddr: 0x100006D0C, symSize: 0x90 }
  - { offsetInCU: 0x1262A, offset: 0x1262A, size: 0x8, addend: 0x0, symName: __ZNSt4pairIKS_IiiEcEC1IJOS0_EJLm0EEJEJEEERSt5tupleIJDpT_EERS5_IJDpT1_EESt12_Index_tupleIJXspT0_EEESE_IJXspT2_EEE, symObjAddr: 0x64CC, symBinAddr: 0x100006D9C, symSize: 0x4C }
  - { offsetInCU: 0x12759, offset: 0x12759, size: 0x8, addend: 0x0, symName: __ZNSt4pairIKS_IiiEcEC1IJOS0_EJEEESt21piecewise_construct_tSt5tupleIJDpT_EES6_IJDpT0_EE, symObjAddr: 0x6400, symBinAddr: 0x100006CD0, symSize: 0x3C }
  - { offsetInCU: 0x12761, offset: 0x12761, size: 0x8, addend: 0x0, symName: __ZNSt11__copy_moveILb0ELb1ESt26random_access_iterator_tagE8__copy_mIKP11Search_CellS4_EEPT0_PT_S9_S7_, symObjAddr: 0x643C, symBinAddr: 0x100006D0C, symSize: 0x90 }
  - { offsetInCU: 0x127C1, offset: 0x127C1, size: 0x8, addend: 0x0, symName: __ZNSt11_Tuple_implILm0EJOSt4pairIiiEEEC2EOS3_, symObjAddr: 0x63D8, symBinAddr: 0x100006CA8, symSize: 0x28 }
  - { offsetInCU: 0x127C9, offset: 0x127C9, size: 0x8, addend: 0x0, symName: __ZNSt4pairIKS_IiiEcEC1IJOS0_EJEEESt21piecewise_construct_tSt5tupleIJDpT_EES6_IJDpT0_EE, symObjAddr: 0x6400, symBinAddr: 0x100006CD0, symSize: 0x3C }
  - { offsetInCU: 0x12927, offset: 0x12927, size: 0x8, addend: 0x0, symName: __ZSt7forwardINSt7__cxx1112basic_stringIcSt11char_traitsIcESaIcEEEEOT_RNSt16remove_referenceIS6_E4typeE, symObjAddr: 0x63C4, symBinAddr: 0x100006C94, symSize: 0x14 }
  - { offsetInCU: 0x1292F, offset: 0x1292F, size: 0x8, addend: 0x0, symName: __ZNSt11_Tuple_implILm0EJOSt4pairIiiEEEC2EOS3_, symObjAddr: 0x63D8, symBinAddr: 0x100006CA8, symSize: 0x28 }
  - { offsetInCU: 0x1295F, offset: 0x1295F, size: 0x8, addend: 0x0, symName: __ZSt14__copy_move_a2ILb0EPKP11Search_CellPS1_ET1_T0_S6_S5_, symObjAddr: 0x6398, symBinAddr: 0x100006C68, symSize: 0x2C }
  - { offsetInCU: 0x12967, offset: 0x12967, size: 0x8, addend: 0x0, symName: __ZSt7forwardINSt7__cxx1112basic_stringIcSt11char_traitsIcESaIcEEEEOT_RNSt16remove_referenceIS6_E4typeE, symObjAddr: 0x63C4, symBinAddr: 0x100006C94, symSize: 0x14 }
  - { offsetInCU: 0x129DC, offset: 0x129DC, size: 0x8, addend: 0x0, symName: __ZSt7forwardIRKSt4pairIiiEEOT_RNSt16remove_referenceIS4_E4typeE, symObjAddr: 0x6384, symBinAddr: 0x100006C54, symSize: 0x14 }
  - { offsetInCU: 0x129E4, offset: 0x129E4, size: 0x8, addend: 0x0, symName: __ZSt14__copy_move_a2ILb0EPKP11Search_CellPS1_ET1_T0_S6_S5_, symObjAddr: 0x6398, symBinAddr: 0x100006C68, symSize: 0x2C }
  - { offsetInCU: 0x129CD, offset: 0x129CD, size: 0x8, addend: 0x0, symName: __ZNK9__gnu_cxx16__aligned_membufISt4pairIKS1_IiiEcEE7_M_addrEv, symObjAddr: 0x6370, symBinAddr: 0x100006C40, symSize: 0x14 }
  - { offsetInCU: 0x129D5, offset: 0x129D5, size: 0x8, addend: 0x0, symName: __ZSt7forwardIRKSt4pairIiiEEOT_RNSt16remove_referenceIS4_E4typeE, symObjAddr: 0x6384, symBinAddr: 0x100006C54, symSize: 0x14 }
  - { offsetInCU: 0x12ACF, offset: 0x12ACF, size: 0x8, addend: 0x0, symName: __ZNSt5tupleIJOSt4pairIiiEEEC1EOS3_, symObjAddr: 0x6348, symBinAddr: 0x100006C18, symSize: 0x28 }
  - { offsetInCU: 0x12AD7, offset: 0x12AD7, size: 0x8, addend: 0x0, symName: __ZNK9__gnu_cxx16__aligned_membufISt4pairIKS1_IiiEcEE7_M_addrEv, symObjAddr: 0x6370, symBinAddr: 0x100006C40, symSize: 0x14 }
  - { offsetInCU: 0x12AE6, offset: 0x12AE6, size: 0x8, addend: 0x0, symName: __ZNSt15__new_allocatorISt13_Rb_tree_nodeISt4pairIKS1_IiiEcEEE8allocateEmPKv, symObjAddr: 0x62B8, symBinAddr: 0x100006B88, symSize: 0x90 }
  - { offsetInCU: 0x12AEE, offset: 0x12AEE, size: 0x8, addend: 0x0, symName: __ZNSt5tupleIJOSt4pairIiiEEEC1EOS3_, symObjAddr: 0x6348, symBinAddr: 0x100006C18, symSize: 0x28 }
  - { offsetInCU: 0x12B6C, offset: 0x12B6C, size: 0x8, addend: 0x0, symName: __ZNSt8_Rb_treeISt4pairIiiES0_IKS1_cESt10_Select1stIS3_ESt4lessIS1_ESaIS3_EE17_M_construct_nodeIJRKS3_EEEvPSt13_Rb_tree_nodeIS3_EDpOT_, symObjAddr: 0x61F8, symBinAddr: 0x100006AC8, symSize: 0xC0 }
  - { offsetInCU: 0x12B74, offset: 0x12B74, size: 0x8, addend: 0x0, symName: __ZNSt15__new_allocatorISt13_Rb_tree_nodeISt4pairIKS1_IiiEcEEE8allocateEmPKv, symObjAddr: 0x62B8, symBinAddr: 0x100006B88, symSize: 0x90 }
  - { offsetInCU: 0x12D26, offset: 0x12D26, size: 0x8, addend: 0x0, symName: __ZSt12__niter_wrapIPP11Search_CellET_RKS3_S3_, symObjAddr: 0x61E0, symBinAddr: 0x100006AB0, symSize: 0x18 }
  - { offsetInCU: 0x12D2E, offset: 0x12D2E, size: 0x8, addend: 0x0, symName: __ZNSt8_Rb_treeISt4pairIiiES0_IKS1_cESt10_Select1stIS3_ESt4lessIS1_ESaIS3_EE17_M_construct_nodeIJRKS3_EEEvPSt13_Rb_tree_nodeIS3_EDpOT_, symObjAddr: 0x61F8, symBinAddr: 0x100006AC8, symSize: 0xC0 }
  - { offsetInCU: 0x12DA9, offset: 0x12DA9, size: 0x8, addend: 0x0, symName: __ZSt14__copy_move_a1ILb0EPKP11Search_CellPS1_ET1_T0_S6_S5_, symObjAddr: 0x61B4, symBinAddr: 0x100006A84, symSize: 0x2C }
  - { offsetInCU: 0x12DB1, offset: 0x12DB1, size: 0x8, addend: 0x0, symName: __ZSt12__niter_wrapIPP11Search_CellET_RKS3_S3_, symObjAddr: 0x61E0, symBinAddr: 0x100006AB0, symSize: 0x18 }
  - { offsetInCU: 0x12E64, offset: 0x12E64, size: 0x8, addend: 0x0, symName: __ZSt12__niter_baseIPKP11Search_CellSt6vectorIS1_SaIS1_EEET_N9__gnu_cxx17__normal_iteratorIS7_T0_EE, symObjAddr: 0x6194, symBinAddr: 0x100006A64, symSize: 0x20 }
  - { offsetInCU: 0x12E6C, offset: 0x12E6C, size: 0x8, addend: 0x0, symName: __ZSt14__copy_move_a1ILb0EPKP11Search_CellPS1_ET1_T0_S6_S5_, symObjAddr: 0x61B4, symBinAddr: 0x100006A84, symSize: 0x2C }
  - { offsetInCU: 0x12E82, offset: 0x12E82, size: 0x8, addend: 0x0, symName: __ZSt10_ConstructISt4pairIiiEJRKS1_EEvPT_DpOT0_, symObjAddr: 0x614C, symBinAddr: 0x100006A1C, symSize: 0x48 }
  - { offsetInCU: 0x12E8A, offset: 0x12E8A, size: 0x8, addend: 0x0, symName: __ZSt12__niter_baseIPKP11Search_CellSt6vectorIS1_SaIS1_EEET_N9__gnu_cxx17__normal_iteratorIS7_T0_EE, symObjAddr: 0x6194, symBinAddr: 0x100006A64, symSize: 0x20 }
  - { offsetInCU: 0x12EC5, offset: 0x12EC5, size: 0x8, addend: 0x0, symName: __ZSt11__addressofISt4pairIiiEEPT_RS2_, symObjAddr: 0x6138, symBinAddr: 0x100006A08, symSize: 0x14 }
  - { offsetInCU: 0x12ECD, offset: 0x12ECD, size: 0x8, addend: 0x0, symName: __ZSt10_ConstructISt4pairIiiEJRKS1_EEvPT_DpOT0_, symObjAddr: 0x614C, symBinAddr: 0x100006A1C, symSize: 0x48 }
  - { offsetInCU: 0x12EC3, offset: 0x12EC3, size: 0x8, addend: 0x0, symName: __ZNK9__gnu_cxx16__aligned_membufISt4pairIKS1_IiiEcEE6_M_ptrEv, symObjAddr: 0x611C, symBinAddr: 0x1000069EC, symSize: 0x1C }
  - { offsetInCU: 0x12ECB, offset: 0x12ECB, size: 0x8, addend: 0x0, symName: __ZSt11__addressofISt4pairIiiEEPT_RS2_, symObjAddr: 0x6138, symBinAddr: 0x100006A08, symSize: 0x14 }
  - { offsetInCU: 0x12F9B, offset: 0x12F9B, size: 0x8, addend: 0x0, symName: __ZSt7forwardIRPSt13_Rb_tree_nodeISt4pairIKS1_IiiEcEEEOT_RNSt16remove_referenceIS8_E4typeE, symObjAddr: 0x6108, symBinAddr: 0x1000069D8, symSize: 0x14 }
  - { offsetInCU: 0x12FA3, offset: 0x12FA3, size: 0x8, addend: 0x0, symName: __ZNK9__gnu_cxx16__aligned_membufISt4pairIKS1_IiiEcEE6_M_ptrEv, symObjAddr: 0x611C, symBinAddr: 0x1000069EC, symSize: 0x1C }
  - { offsetInCU: 0x12FF9, offset: 0x12FF9, size: 0x8, addend: 0x0, symName: __ZNSt15__new_allocatorISt13_Rb_tree_nodeISt4pairIKS1_IiiEcEEE10deallocateEPS5_m, symObjAddr: 0x60CC, symBinAddr: 0x10000699C, symSize: 0x3C }
  - { offsetInCU: 0x13001, offset: 0x13001, size: 0x8, addend: 0x0, symName: __ZSt7forwardIRPSt13_Rb_tree_nodeISt4pairIKS1_IiiEcEEEOT_RNSt16remove_referenceIS8_E4typeE, symObjAddr: 0x6108, symBinAddr: 0x1000069D8, symSize: 0x14 }
  - { offsetInCU: 0x13084, offset: 0x13084, size: 0x8, addend: 0x0, symName: __ZNSt8_Rb_treeISt4pairIiiES0_IKS1_cESt10_Select1stIS3_ESt4lessIS1_ESaIS3_EE14_M_create_nodeIJRKS3_EEEPSt13_Rb_tree_nodeIS3_EDpOT_, symObjAddr: 0x608C, symBinAddr: 0x10000695C, symSize: 0x40 }
  - { offsetInCU: 0x1308C, offset: 0x1308C, size: 0x8, addend: 0x0, symName: __ZNSt15__new_allocatorISt13_Rb_tree_nodeISt4pairIKS1_IiiEcEEE10deallocateEPS5_m, symObjAddr: 0x60CC, symBinAddr: 0x10000699C, symSize: 0x3C }
  - { offsetInCU: 0x131DC, offset: 0x131DC, size: 0x8, addend: 0x0, symName: __ZSt19__relocate_object_aINSt7__cxx1112basic_stringIcSt11char_traitsIcESaIcEEES5_SaIS5_EEvPT_PT0_RT1_, symObjAddr: 0x5FBC, symBinAddr: 0x10000688C, symSize: 0xD0 }
  - { offsetInCU: 0x131E4, offset: 0x131E4, size: 0x8, addend: 0x0, symName: __ZNSt8_Rb_treeISt4pairIiiES0_IKS1_cESt10_Select1stIS3_ESt4lessIS1_ESaIS3_EE14_M_create_nodeIJRKS3_EEEPSt13_Rb_tree_nodeIS3_EDpOT_, symObjAddr: 0x608C, symBinAddr: 0x10000695C, symSize: 0x40 }
  - { offsetInCU: 0x133A5, offset: 0x133A5, size: 0x8, addend: 0x0, symName: __ZSt13__copy_move_aILb0EN9__gnu_cxx17__normal_iteratorIPKP11Search_CellSt6vectorIS3_SaIS3_EEEEPS3_ET1_T0_SC_SB_, symObjAddr: 0x5F5C, symBinAddr: 0x10000682C, symSize: 0x60 }
  - { offsetInCU: 0x133AD, offset: 0x133AD, size: 0x8, addend: 0x0, symName: __ZSt19__relocate_object_aINSt7__cxx1112basic_stringIcSt11char_traitsIcESaIcEEES5_SaIS5_EEvPT_PT0_RT1_, symObjAddr: 0x5FBC, symBinAddr: 0x10000688C, symSize: 0xD0 }
  - { offsetInCU: 0x1340E, offset: 0x1340E, size: 0x8, addend: 0x0, symName: __ZSt12__miter_baseIN9__gnu_cxx17__normal_iteratorIPKP11Search_CellSt6vectorIS3_SaIS3_EEEEET_SA_, symObjAddr: 0x5F48, symBinAddr: 0x100006818, symSize: 0x14 }
  - { offsetInCU: 0x13416, offset: 0x13416, size: 0x8, addend: 0x0, symName: __ZSt13__copy_move_aILb0EN9__gnu_cxx17__normal_iteratorIPKP11Search_CellSt6vectorIS3_SaIS3_EEEEPS3_ET1_T0_SC_SB_, symObjAddr: 0x5F5C, symBinAddr: 0x10000682C, symSize: 0x60 }
  - { offsetInCU: 0x13414, offset: 0x13414, size: 0x8, addend: 0x0, symName: __ZSt16__do_uninit_copyIPKSt4pairIiiEPS1_ET0_T_S6_S5_, symObjAddr: 0x5EE4, symBinAddr: 0x1000067B4, symSize: 0x64 }
  - { offsetInCU: 0x1341C, offset: 0x1341C, size: 0x8, addend: 0x0, symName: __ZSt12__miter_baseIN9__gnu_cxx17__normal_iteratorIPKP11Search_CellSt6vectorIS3_SaIS3_EEEEET_SA_, symObjAddr: 0x5F48, symBinAddr: 0x100006818, symSize: 0x14 }
  - { offsetInCU: 0x1345A, offset: 0x1345A, size: 0x8, addend: 0x0, symName: __ZNKSt13_Rb_tree_nodeISt4pairIKS0_IiiEcEE9_M_valptrEv, symObjAddr: 0x5EC4, symBinAddr: 0x100006794, symSize: 0x20 }
  - { offsetInCU: 0x13462, offset: 0x13462, size: 0x8, addend: 0x0, symName: __ZSt16__do_uninit_copyIPKSt4pairIiiEPS1_ET0_T_S6_S5_, symObjAddr: 0x5EE4, symBinAddr: 0x1000067B4, symSize: 0x64 }
  - { offsetInCU: 0x134FB, offset: 0x134FB, size: 0x8, addend: 0x0, symName: __ZSt7forwardIRPSt18_Rb_tree_node_baseEOT_RNSt16remove_referenceIS3_E4typeE, symObjAddr: 0x5EB0, symBinAddr: 0x100006780, symSize: 0x14 }
  - { offsetInCU: 0x13503, offset: 0x13503, size: 0x8, addend: 0x0, symName: __ZNKSt13_Rb_tree_nodeISt4pairIKS0_IiiEcEE9_M_valptrEv, symObjAddr: 0x5EC4, symBinAddr: 0x100006794, symSize: 0x20 }
  - { offsetInCU: 0x1358E, offset: 0x1358E, size: 0x8, addend: 0x0, symName: __ZNSt4pairIPSt18_Rb_tree_node_baseS1_EC1IRPSt13_Rb_tree_nodeIS_IKS_IiiEcEERS1_Lb1EEEOT_OT0_, symObjAddr: 0x5E68, symBinAddr: 0x100006738, symSize: 0x48 }
  - { offsetInCU: 0x13596, offset: 0x13596, size: 0x8, addend: 0x0, symName: __ZSt7forwardIRPSt18_Rb_tree_node_baseEOT_RNSt16remove_referenceIS3_E4typeE, symObjAddr: 0x5EB0, symBinAddr: 0x100006780, symSize: 0x14 }
  - { offsetInCU: 0x13592, offset: 0x13592, size: 0x8, addend: 0x0, symName: __ZNSt8_Rb_treeISt4pairIiiES0_IKS1_cESt10_Select1stIS3_ESt4lessIS1_ESaIS3_EE5beginEv, symObjAddr: 0x5E40, symBinAddr: 0x100006710, symSize: 0x28 }
  - { offsetInCU: 0x1359A, offset: 0x1359A, size: 0x8, addend: 0x0, symName: __ZNSt4pairIPSt18_Rb_tree_node_baseS1_EC1IRPSt13_Rb_tree_nodeIS_IKS_IiiEcEERS1_Lb1EEEOT_OT0_, symObjAddr: 0x5E68, symBinAddr: 0x100006738, symSize: 0x48 }
  - { offsetInCU: 0x135C1, offset: 0x135C1, size: 0x8, addend: 0x0, symName: __ZNSt8_Rb_treeISt4pairIiiES0_IKS1_cESt10_Select1stIS3_ESt4lessIS1_ESaIS3_EE17_M_construct_nodeIJRKSt21piecewise_construct_tSt5tupleIJOS1_EESE_IJEEEEEvPSt13_Rb_tree_nodeIS3_EDpOT_, symObjAddr: 0x5CC4, symBinAddr: 0x100006594, symSize: 0x17C }
  - { offsetInCU: 0x135C9, offset: 0x135C9, size: 0x8, addend: 0x0, symName: __ZNSt8_Rb_treeISt4pairIiiES0_IKS1_cESt10_Select1stIS3_ESt4lessIS1_ESaIS3_EE5beginEv, symObjAddr: 0x5E40, symBinAddr: 0x100006710, symSize: 0x28 }
  - { offsetInCU: 0x13702, offset: 0x13702, size: 0x8, addend: 0x0, symName: __ZNSt8_Rb_treeISt4pairIiiES0_IKS1_cESt10_Select1stIS3_ESt4lessIS1_ESaIS3_EE11_M_get_nodeEv, symObjAddr: 0x5C88, symBinAddr: 0x100006558, symSize: 0x3C }
  - { offsetInCU: 0x1370A, offset: 0x1370A, size: 0x8, addend: 0x0, symName: __ZNSt8_Rb_treeISt4pairIiiES0_IKS1_cESt10_Select1stIS3_ESt4lessIS1_ESaIS3_EE17_M_construct_nodeIJRKSt21piecewise_construct_tSt5tupleIJOS1_EESE_IJEEEEEvPSt13_Rb_tree_nodeIS3_EDpOT_, symObjAddr: 0x5CC4, symBinAddr: 0x100006594, symSize: 0x17C }
  - { offsetInCU: 0x137CC, offset: 0x137CC, size: 0x8, addend: 0x0, symName: __ZNSt10_Head_baseILm0EOSt4pairIiiELb0EEC2IS1_EEOT_, symObjAddr: 0x5C58, symBinAddr: 0x100006528, symSize: 0x30 }
  - { offsetInCU: 0x137D4, offset: 0x137D4, size: 0x8, addend: 0x0, symName: __ZNSt8_Rb_treeISt4pairIiiES0_IKS1_cESt10_Select1stIS3_ESt4lessIS1_ESaIS3_EE11_M_get_nodeEv, symObjAddr: 0x5C88, symBinAddr: 0x100006558, symSize: 0x3C }
  - { offsetInCU: 0x137E5, offset: 0x137E5, size: 0x8, addend: 0x0, symName: __ZN9__gnu_cxx16__aligned_membufISt4pairIKS1_IiiEcEE7_M_addrEv, symObjAddr: 0x5C44, symBinAddr: 0x100006514, symSize: 0x14 }
  - { offsetInCU: 0x137ED, offset: 0x137ED, size: 0x8, addend: 0x0, symName: __ZNSt10_Head_baseILm0EOSt4pairIiiELb0EEC2IS1_EEOT_, symObjAddr: 0x5C58, symBinAddr: 0x100006528, symSize: 0x30 }
  - { offsetInCU: 0x1388F, offset: 0x1388F, size: 0x8, addend: 0x0, symName: __ZNSt8_Rb_treeISt4pairIiiES0_IKS1_cESt10_Select1stIS3_ESt4lessIS1_ESaIS3_EE21_M_get_Node_allocatorEv, symObjAddr: 0x5C30, symBinAddr: 0x100006500, symSize: 0x14 }
  - { offsetInCU: 0x13897, offset: 0x13897, size: 0x8, addend: 0x0, symName: __ZN9__gnu_cxx16__aligned_membufISt4pairIKS1_IiiEcEE7_M_addrEv, symObjAddr: 0x5C44, symBinAddr: 0x100006514, symSize: 0x14 }
  - { offsetInCU: 0x138D1, offset: 0x138D1, size: 0x8, addend: 0x0, symName: __ZNKSt8_Rb_treeISt4pairIiiES0_IKS1_cESt10_Select1stIS3_ESt4lessIS1_ESaIS3_EE11_Alloc_nodeclIRKS3_EEPSt13_Rb_tree_nodeIS3_EOT_, symObjAddr: 0x5BF4, symBinAddr: 0x1000064C4, symSize: 0x3C }
  - { offsetInCU: 0x138D9, offset: 0x138D9, size: 0x8, addend: 0x0, symName: __ZNSt8_Rb_treeISt4pairIiiES0_IKS1_cESt10_Select1stIS3_ESt4lessIS1_ESaIS3_EE21_M_get_Node_allocatorEv, symObjAddr: 0x5C30, symBinAddr: 0x100006500, symSize: 0x14 }
  - { offsetInCU: 0x13A36, offset: 0x13A36, size: 0x8, addend: 0x0, symName: __ZSt14__relocate_a_1IPNSt7__cxx1112basic_stringIcSt11char_traitsIcESaIcEEES6_SaIS5_EET0_T_S9_S8_RT1_, symObjAddr: 0x5B70, symBinAddr: 0x100006440, symSize: 0x84 }
  - { offsetInCU: 0x13A3E, offset: 0x13A3E, size: 0x8, addend: 0x0, symName: __ZNKSt8_Rb_treeISt4pairIiiES0_IKS1_cESt10_Select1stIS3_ESt4lessIS1_ESaIS3_EE11_Alloc_nodeclIRKS3_EEPSt13_Rb_tree_nodeIS3_EOT_, symObjAddr: 0x5BF4, symBinAddr: 0x1000064C4, symSize: 0x3C }
  - { offsetInCU: 0x13A7D, offset: 0x13A7D, size: 0x8, addend: 0x0, symName: __ZSt12__niter_baseIPNSt7__cxx1112basic_stringIcSt11char_traitsIcESaIcEEEET_S7_, symObjAddr: 0x5B5C, symBinAddr: 0x10000642C, symSize: 0x14 }
  - { offsetInCU: 0x13A85, offset: 0x13A85, size: 0x8, addend: 0x0, symName: __ZSt14__relocate_a_1IPNSt7__cxx1112basic_stringIcSt11char_traitsIcESaIcEEES6_SaIS5_EET0_T_S9_S8_RT1_, symObjAddr: 0x5B70, symBinAddr: 0x100006440, symSize: 0x84 }
  - { offsetInCU: 0x13A45, offset: 0x13A45, size: 0x8, addend: 0x0, symName: __ZNSt15__new_allocatorINSt7__cxx1112basic_stringIcSt11char_traitsIcESaIcEEEE8allocateEmPKv, symObjAddr: 0x5AE0, symBinAddr: 0x1000063B0, symSize: 0x7C }
  - { offsetInCU: 0x13A4D, offset: 0x13A4D, size: 0x8, addend: 0x0, symName: __ZSt12__niter_baseIPNSt7__cxx1112basic_stringIcSt11char_traitsIcESaIcEEEET_S7_, symObjAddr: 0x5B5C, symBinAddr: 0x10000642C, symSize: 0x14 }
  - { offsetInCU: 0x13ACB, offset: 0x13ACB, size: 0x8, addend: 0x0, symName: __ZNKSt12_Vector_baseINSt7__cxx1112basic_stringIcSt11char_traitsIcESaIcEEESaIS5_EE19_M_get_Tp_allocatorEv, symObjAddr: 0x5ACC, symBinAddr: 0x10000639C, symSize: 0x14 }
  - { offsetInCU: 0x13AD3, offset: 0x13AD3, size: 0x8, addend: 0x0, symName: __ZNSt15__new_allocatorINSt7__cxx1112basic_stringIcSt11char_traitsIcESaIcEEEE8allocateEmPKv, symObjAddr: 0x5AE0, symBinAddr: 0x1000063B0, symSize: 0x7C }
  - { offsetInCU: 0x13AFA, offset: 0x13AFA, size: 0x8, addend: 0x0, symName: __ZNSt6vectorINSt7__cxx1112basic_stringIcSt11char_traitsIcESaIcEEESaIS5_EE11_S_max_sizeERKS6_, symObjAddr: 0x5A78, symBinAddr: 0x100006348, symSize: 0x54 }
  - { offsetInCU: 0x13B02, offset: 0x13B02, size: 0x8, addend: 0x0, symName: __ZNKSt12_Vector_baseINSt7__cxx1112basic_stringIcSt11char_traitsIcESaIcEEESaIS5_EE19_M_get_Tp_allocatorEv, symObjAddr: 0x5ACC, symBinAddr: 0x10000639C, symSize: 0x14 }
  - { offsetInCU: 0x13C3A, offset: 0x13C3A, size: 0x8, addend: 0x0, symName: __ZSt8_DestroyINSt7__cxx1112basic_stringIcSt11char_traitsIcESaIcEEEEvPT_, symObjAddr: 0x5A58, symBinAddr: 0x100006328, symSize: 0x20 }
  - { offsetInCU: 0x13C42, offset: 0x13C42, size: 0x8, addend: 0x0, symName: __ZNSt6vectorINSt7__cxx1112basic_stringIcSt11char_traitsIcESaIcEEESaIS5_EE11_S_max_sizeERKS6_, symObjAddr: 0x5A78, symBinAddr: 0x100006348, symSize: 0x54 }
  - { offsetInCU: 0x13CC5, offset: 0x13CC5, size: 0x8, addend: 0x0, symName: __ZSt14__relocate_a_1IP11Search_CellS1_ENSt9enable_ifIXsrSt24__is_bitwise_relocatableIT_vE5valueEPS4_E4typeES6_S6_S6_RSaIT0_E, symObjAddr: 0x59F0, symBinAddr: 0x1000062C0, symSize: 0x68 }
  - { offsetInCU: 0x13CCD, offset: 0x13CCD, size: 0x8, addend: 0x0, symName: __ZSt8_DestroyINSt7__cxx1112basic_stringIcSt11char_traitsIcESaIcEEEEvPT_, symObjAddr: 0x5A58, symBinAddr: 0x100006328, symSize: 0x20 }
  - { offsetInCU: 0x13D0B, offset: 0x13D0B, size: 0x8, addend: 0x0, symName: __ZSt12__niter_baseIPP11Search_CellET_S3_, symObjAddr: 0x59DC, symBinAddr: 0x1000062AC, symSize: 0x14 }
  - { offsetInCU: 0x13D13, offset: 0x13D13, size: 0x8, addend: 0x0, symName: __ZSt14__relocate_a_1IP11Search_CellS1_ENSt9enable_ifIXsrSt24__is_bitwise_relocatableIT_vE5valueEPS4_E4typeES6_S6_S6_RSaIT0_E, symObjAddr: 0x59F0, symBinAddr: 0x1000062C0, symSize: 0x68 }
  - { offsetInCU: 0x13D0D, offset: 0x13D0D, size: 0x8, addend: 0x0, symName: __ZNSt15__new_allocatorIP11Search_CellE8allocateEmPKv, symObjAddr: 0x5960, symBinAddr: 0x100006230, symSize: 0x7C }
  - { offsetInCU: 0x13D15, offset: 0x13D15, size: 0x8, addend: 0x0, symName: __ZSt12__niter_baseIPP11Search_CellET_S3_, symObjAddr: 0x59DC, symBinAddr: 0x1000062AC, symSize: 0x14 }
  - { offsetInCU: 0x13D93, offset: 0x13D93, size: 0x8, addend: 0x0, symName: __ZNSt6vectorIP11Search_CellSaIS1_EE11_S_max_sizeERKS2_, symObjAddr: 0x590C, symBinAddr: 0x1000061DC, symSize: 0x54 }
  - { offsetInCU: 0x13D9B, offset: 0x13D9B, size: 0x8, addend: 0x0, symName: __ZNSt15__new_allocatorIP11Search_CellE8allocateEmPKv, symObjAddr: 0x5960, symBinAddr: 0x100006230, symSize: 0x7C }
  - { offsetInCU: 0x13F28, offset: 0x13F28, size: 0x8, addend: 0x0, symName: __ZSt4copyIN9__gnu_cxx17__normal_iteratorIPKP11Search_CellSt6vectorIS3_SaIS3_EEEEPS3_ET0_T_SC_SB_, symObjAddr: 0x58C4, symBinAddr: 0x100006194, symSize: 0x48 }
  - { offsetInCU: 0x13F30, offset: 0x13F30, size: 0x8, addend: 0x0, symName: __ZNSt6vectorIP11Search_CellSaIS1_EE11_S_max_sizeERKS2_, symObjAddr: 0x590C, symBinAddr: 0x1000061DC, symSize: 0x54 }
  - { offsetInCU: 0x13EE0, offset: 0x13EE0, size: 0x8, addend: 0x0, symName: __ZNSt20__uninitialized_copyILb0EE13__uninit_copyIPKSt4pairIiiEPS3_EET0_T_S8_S7_, symObjAddr: 0x5898, symBinAddr: 0x100006168, symSize: 0x2C }
  - { offsetInCU: 0x13EE8, offset: 0x13EE8, size: 0x8, addend: 0x0, symName: __ZSt4copyIN9__gnu_cxx17__normal_iteratorIPKP11Search_CellSt6vectorIS3_SaIS3_EEEEPS3_ET0_T_SC_SB_, symObjAddr: 0x58C4, symBinAddr: 0x100006194, symSize: 0x48 }
  - { offsetInCU: 0x13F51, offset: 0x13F51, size: 0x8, addend: 0x0, symName: __ZNSt15__new_allocatorISt4pairIiiEE8allocateEmPKv, symObjAddr: 0x581C, symBinAddr: 0x1000060EC, symSize: 0x7C }
  - { offsetInCU: 0x13F59, offset: 0x13F59, size: 0x8, addend: 0x0, symName: __ZNSt20__uninitialized_copyILb0EE13__uninit_copyIPKSt4pairIiiEPS3_EET0_T_S8_S7_, symObjAddr: 0x5898, symBinAddr: 0x100006168, symSize: 0x2C }
  - { offsetInCU: 0x14008, offset: 0x14008, size: 0x8, addend: 0x0, symName: __ZSt3minImERKT_S2_S2_, symObjAddr: 0x57E4, symBinAddr: 0x1000060B4, symSize: 0x38 }
  - { offsetInCU: 0x14010, offset: 0x14010, size: 0x8, addend: 0x0, symName: __ZNSt15__new_allocatorISt4pairIiiEE8allocateEmPKv, symObjAddr: 0x581C, symBinAddr: 0x1000060EC, symSize: 0x7C }
  - { offsetInCU: 0x1405A, offset: 0x1405A, size: 0x8, addend: 0x0, symName: __ZNSt15__new_allocatorISt4pairIiiEE10deallocateEPS1_m, symObjAddr: 0x57B4, symBinAddr: 0x100006084, symSize: 0x30 }
  - { offsetInCU: 0x14062, offset: 0x14062, size: 0x8, addend: 0x0, symName: __ZSt3minImERKT_S2_S2_, symObjAddr: 0x57E4, symBinAddr: 0x1000060B4, symSize: 0x38 }
  - { offsetInCU: 0x14148, offset: 0x14148, size: 0x8, addend: 0x0, symName: __ZN9__gnu_cxx5__ops14_Iter_comp_valI8CompareFEC1EONS0_15_Iter_comp_iterIS2_EE, symObjAddr: 0x5790, symBinAddr: 0x100006060, symSize: 0x24 }
  - { offsetInCU: 0x14150, offset: 0x14150, size: 0x8, addend: 0x0, symName: __ZNSt15__new_allocatorISt4pairIiiEE10deallocateEPS1_m, symObjAddr: 0x57B4, symBinAddr: 0x100006084, symSize: 0x30 }
  - { offsetInCU: 0x141CA, offset: 0x141CA, size: 0x8, addend: 0x0, symName: __ZSt4moveIRN9__gnu_cxx5__ops15_Iter_comp_iterI8CompareFEEEONSt16remove_referenceIT_E4typeEOS7_, symObjAddr: 0x577C, symBinAddr: 0x10000604C, symSize: 0x14 }
  - { offsetInCU: 0x141D2, offset: 0x141D2, size: 0x8, addend: 0x0, symName: __ZN9__gnu_cxx5__ops14_Iter_comp_valI8CompareFEC1EONS0_15_Iter_comp_iterIS2_EE, symObjAddr: 0x5790, symBinAddr: 0x100006060, symSize: 0x24 }
  - { offsetInCU: 0x14192, offset: 0x14192, size: 0x8, addend: 0x0, symName: __ZN9__gnu_cxx5__ops15_Iter_comp_iterI8CompareFEclINS_17__normal_iteratorIPP11Search_CellSt6vectorIS7_SaIS7_EEEESC_EEbT_T0_, symObjAddr: 0x5728, symBinAddr: 0x100005FF8, symSize: 0x54 }
  - { offsetInCU: 0x1419A, offset: 0x1419A, size: 0x8, addend: 0x0, symName: __ZSt4moveIRN9__gnu_cxx5__ops15_Iter_comp_iterI8CompareFEEEONSt16remove_referenceIT_E4typeEOS7_, symObjAddr: 0x577C, symBinAddr: 0x10000604C, symSize: 0x14 }
  - { offsetInCU: 0x14201, offset: 0x14201, size: 0x8, addend: 0x0, symName: __ZNSt8_Rb_treeISt4pairIiiES0_IKS1_cESt10_Select1stIS3_ESt4lessIS1_ESaIS3_EE14_M_insert_nodeEPSt18_Rb_tree_node_baseSB_PSt13_Rb_tree_nodeIS3_E, symObjAddr: 0x5654, symBinAddr: 0x100005F24, symSize: 0xD4 }
  - { offsetInCU: 0x14209, offset: 0x14209, size: 0x8, addend: 0x0, symName: __ZN9__gnu_cxx5__ops15_Iter_comp_iterI8CompareFEclINS_17__normal_iteratorIPP11Search_CellSt6vectorIS7_SaIS7_EEEESC_EEbT_T0_, symObjAddr: 0x5728, symBinAddr: 0x100005FF8, symSize: 0x54 }
  - { offsetInCU: 0x14280, offset: 0x14280, size: 0x8, addend: 0x0, symName: __ZNSt8_Rb_treeISt4pairIiiES0_IKS1_cESt10_Select1stIS3_ESt4lessIS1_ESaIS3_EE6_S_keyEPKSt13_Rb_tree_nodeIS3_E, symObjAddr: 0x562C, symBinAddr: 0x100005EFC, symSize: 0x28 }
  - { offsetInCU: 0x14288, offset: 0x14288, size: 0x8, addend: 0x0, symName: __ZNSt8_Rb_treeISt4pairIiiES0_IKS1_cESt10_Select1stIS3_ESt4lessIS1_ESaIS3_EE14_M_insert_nodeEPSt18_Rb_tree_node_baseSB_PSt13_Rb_tree_nodeIS3_E, symObjAddr: 0x5654, symBinAddr: 0x100005F24, symSize: 0xD4 }
  - { offsetInCU: 0x142B2, offset: 0x142B2, size: 0x8, addend: 0x0, symName: __ZNSt17_Rb_tree_iteratorISt4pairIKS0_IiiEcEEppEv, symObjAddr: 0x55FC, symBinAddr: 0x100005ECC, symSize: 0x30 }
  - { offsetInCU: 0x142BA, offset: 0x142BA, size: 0x8, addend: 0x0, symName: __ZNSt8_Rb_treeISt4pairIiiES0_IKS1_cESt10_Select1stIS3_ESt4lessIS1_ESaIS3_EE6_S_keyEPKSt13_Rb_tree_nodeIS3_E, symObjAddr: 0x562C, symBinAddr: 0x100005EFC, symSize: 0x28 }
  - { offsetInCU: 0x142E1, offset: 0x142E1, size: 0x8, addend: 0x0, symName: __ZNSt17_Rb_tree_iteratorISt4pairIKS0_IiiEcEEmmEv, symObjAddr: 0x55CC, symBinAddr: 0x100005E9C, symSize: 0x30 }
  - { offsetInCU: 0x142E9, offset: 0x142E9, size: 0x8, addend: 0x0, symName: __ZNSt17_Rb_tree_iteratorISt4pairIKS0_IiiEcEEppEv, symObjAddr: 0x55FC, symBinAddr: 0x100005ECC, symSize: 0x30 }
  - { offsetInCU: 0x143A3, offset: 0x143A3, size: 0x8, addend: 0x0, symName: __ZNSt4pairIPSt18_Rb_tree_node_baseS1_EC1IRS1_S4_Lb1EEEOT_OT0_, symObjAddr: 0x5584, symBinAddr: 0x100005E54, symSize: 0x48 }
  - { offsetInCU: 0x143AB, offset: 0x143AB, size: 0x8, addend: 0x0, symName: __ZNSt17_Rb_tree_iteratorISt4pairIKS0_IiiEcEEmmEv, symObjAddr: 0x55CC, symBinAddr: 0x100005E9C, symSize: 0x30 }
  - { offsetInCU: 0x143C5, offset: 0x143C5, size: 0x8, addend: 0x0, symName: __ZNSt8_Rb_treeISt4pairIiiES0_IKS1_cESt10_Select1stIS3_ESt4lessIS1_ESaIS3_EE11_M_leftmostEv, symObjAddr: 0x556C, symBinAddr: 0x100005E3C, symSize: 0x18 }
  - { offsetInCU: 0x143CD, offset: 0x143CD, size: 0x8, addend: 0x0, symName: __ZNSt4pairIPSt18_Rb_tree_node_baseS1_EC1IRS1_S4_Lb1EEEOT_OT0_, symObjAddr: 0x5584, symBinAddr: 0x100005E54, symSize: 0x48 }
  - { offsetInCU: 0x143F4, offset: 0x143F4, size: 0x8, addend: 0x0, symName: __ZNSt8_Rb_treeISt4pairIiiES0_IKS1_cESt10_Select1stIS3_ESt4lessIS1_ESaIS3_EE24_M_get_insert_unique_posERS2_, symObjAddr: 0x5408, symBinAddr: 0x100005CD8, symSize: 0x164 }
  - { offsetInCU: 0x143FC, offset: 0x143FC, size: 0x8, addend: 0x0, symName: __ZNSt8_Rb_treeISt4pairIiiES0_IKS1_cESt10_Select1stIS3_ESt4lessIS1_ESaIS3_EE11_M_leftmostEv, symObjAddr: 0x556C, symBinAddr: 0x100005E3C, symSize: 0x18 }
  - { offsetInCU: 0x14521, offset: 0x14521, size: 0x8, addend: 0x0, symName: __ZNSt4pairIPSt18_Rb_tree_node_baseS1_EC1IS1_S1_Lb1EEERKS1_S5_, symObjAddr: 0x53CC, symBinAddr: 0x100005C9C, symSize: 0x3C }
  - { offsetInCU: 0x14529, offset: 0x14529, size: 0x8, addend: 0x0, symName: __ZNSt8_Rb_treeISt4pairIiiES0_IKS1_cESt10_Select1stIS3_ESt4lessIS1_ESaIS3_EE24_M_get_insert_unique_posERS2_, symObjAddr: 0x5408, symBinAddr: 0x100005CD8, symSize: 0x164 }
  - { offsetInCU: 0x14545, offset: 0x14545, size: 0x8, addend: 0x0, symName: __ZNSt8_Rb_treeISt4pairIiiES0_IKS1_cESt10_Select1stIS3_ESt4lessIS1_ESaIS3_EE6_S_keyEPKSt18_Rb_tree_node_base, symObjAddr: 0x53B0, symBinAddr: 0x100005C80, symSize: 0x1C }
  - { offsetInCU: 0x1454D, offset: 0x1454D, size: 0x8, addend: 0x0, symName: __ZNSt4pairIPSt18_Rb_tree_node_baseS1_EC1IS1_S1_Lb1EEERKS1_S5_, symObjAddr: 0x53CC, symBinAddr: 0x100005C9C, symSize: 0x3C }
  - { offsetInCU: 0x14577, offset: 0x14577, size: 0x8, addend: 0x0, symName: __ZNSt8_Rb_treeISt4pairIiiES0_IKS1_cESt10_Select1stIS3_ESt4lessIS1_ESaIS3_EE12_M_rightmostEv, symObjAddr: 0x5398, symBinAddr: 0x100005C68, symSize: 0x18 }
  - { offsetInCU: 0x1457F, offset: 0x1457F, size: 0x8, addend: 0x0, symName: __ZNSt8_Rb_treeISt4pairIiiES0_IKS1_cESt10_Select1stIS3_ESt4lessIS1_ESaIS3_EE6_S_keyEPKSt18_Rb_tree_node_base, symObjAddr: 0x53B0, symBinAddr: 0x100005C80, symSize: 0x1C }
  - { offsetInCU: 0x145A6, offset: 0x145A6, size: 0x8, addend: 0x0, symName: __ZNKSt8_Rb_treeISt4pairIiiES0_IKS1_cESt10_Select1stIS3_ESt4lessIS1_ESaIS3_EE4sizeEv, symObjAddr: 0x5380, symBinAddr: 0x100005C50, symSize: 0x18 }
  - { offsetInCU: 0x145AE, offset: 0x145AE, size: 0x8, addend: 0x0, symName: __ZNSt8_Rb_treeISt4pairIiiES0_IKS1_cESt10_Select1stIS3_ESt4lessIS1_ESaIS3_EE12_M_rightmostEv, symObjAddr: 0x5398, symBinAddr: 0x100005C68, symSize: 0x18 }
  - { offsetInCU: 0x145D5, offset: 0x145D5, size: 0x8, addend: 0x0, symName: __ZNKSt23_Rb_tree_const_iteratorISt4pairIKS0_IiiEcEE13_M_const_castEv, symObjAddr: 0x5358, symBinAddr: 0x100005C28, symSize: 0x28 }
  - { offsetInCU: 0x145DD, offset: 0x145DD, size: 0x8, addend: 0x0, symName: __ZNKSt8_Rb_treeISt4pairIiiES0_IKS1_cESt10_Select1stIS3_ESt4lessIS1_ESaIS3_EE4sizeEv, symObjAddr: 0x5380, symBinAddr: 0x100005C50, symSize: 0x18 }
  - { offsetInCU: 0x14604, offset: 0x14604, size: 0x8, addend: 0x0, symName: __ZNSt8_Rb_treeISt4pairIiiES0_IKS1_cESt10_Select1stIS3_ESt4lessIS1_ESaIS3_EE14_M_create_nodeIJRKSt21piecewise_construct_tSt5tupleIJOS1_EESE_IJEEEEEPSt13_Rb_tree_nodeIS3_EDpOT_, symObjAddr: 0x52E8, symBinAddr: 0x100005BB8, symSize: 0x70 }
  - { offsetInCU: 0x1460C, offset: 0x1460C, size: 0x8, addend: 0x0, symName: __ZNKSt23_Rb_tree_const_iteratorISt4pairIKS0_IiiEcEE13_M_const_castEv, symObjAddr: 0x5358, symBinAddr: 0x100005C28, symSize: 0x28 }
  - { offsetInCU: 0x146FB, offset: 0x146FB, size: 0x8, addend: 0x0, symName: __ZNSt11_Tuple_implILm0EJOSt4pairIiiEEEC2IS1_EEOT_, symObjAddr: 0x52AC, symBinAddr: 0x100005B7C, symSize: 0x3C }
  - { offsetInCU: 0x14703, offset: 0x14703, size: 0x8, addend: 0x0, symName: __ZNSt8_Rb_treeISt4pairIiiES0_IKS1_cESt10_Select1stIS3_ESt4lessIS1_ESaIS3_EE14_M_create_nodeIJRKSt21piecewise_construct_tSt5tupleIJOS1_EESE_IJEEEEEPSt13_Rb_tree_nodeIS3_EDpOT_, symObjAddr: 0x52E8, symBinAddr: 0x100005BB8, symSize: 0x70 }
  - { offsetInCU: 0x14710, offset: 0x14710, size: 0x8, addend: 0x0, symName: __ZN9__gnu_cxx16__aligned_membufISt4pairIKS1_IiiEcEE6_M_ptrEv, symObjAddr: 0x5290, symBinAddr: 0x100005B60, symSize: 0x1C }
  - { offsetInCU: 0x14718, offset: 0x14718, size: 0x8, addend: 0x0, symName: __ZNSt11_Tuple_implILm0EJOSt4pairIiiEEEC2IS1_EEOT_, symObjAddr: 0x52AC, symBinAddr: 0x100005B7C, symSize: 0x3C }
  - { offsetInCU: 0x1473F, offset: 0x1473F, size: 0x8, addend: 0x0, symName: __ZNSt8_Rb_treeISt4pairIiiES0_IKS1_cESt10_Select1stIS3_ESt4lessIS1_ESaIS3_EE14_M_lower_boundEPSt13_Rb_tree_nodeIS3_EPSt18_Rb_tree_node_baseRS2_, symObjAddr: 0x51F0, symBinAddr: 0x100005AC0, symSize: 0xA0 }
  - { offsetInCU: 0x14747, offset: 0x14747, size: 0x8, addend: 0x0, symName: __ZN9__gnu_cxx16__aligned_membufISt4pairIKS1_IiiEcEE6_M_ptrEv, symObjAddr: 0x5290, symBinAddr: 0x100005B60, symSize: 0x1C }
  - { offsetInCU: 0x147AA, offset: 0x147AA, size: 0x8, addend: 0x0, symName: __ZNSt8_Rb_treeISt4pairIiiES0_IKS1_cESt10_Select1stIS3_ESt4lessIS1_ESaIS3_EE6_M_endEv, symObjAddr: 0x51D8, symBinAddr: 0x100005AA8, symSize: 0x18 }
  - { offsetInCU: 0x147B2, offset: 0x147B2, size: 0x8, addend: 0x0, symName: __ZNSt8_Rb_treeISt4pairIiiES0_IKS1_cESt10_Select1stIS3_ESt4lessIS1_ESaIS3_EE14_M_lower_boundEPSt13_Rb_tree_nodeIS3_EPSt18_Rb_tree_node_baseRS2_, symObjAddr: 0x51F0, symBinAddr: 0x100005AC0, symSize: 0xA0 }
  - { offsetInCU: 0x147D9, offset: 0x147D9, size: 0x8, addend: 0x0, symName: __ZNSt8_Rb_treeISt4pairIiiES0_IKS1_cESt10_Select1stIS3_ESt4lessIS1_ESaIS3_EE11_M_put_nodeEPSt13_Rb_tree_nodeIS3_E, symObjAddr: 0x518C, symBinAddr: 0x100005A5C, symSize: 0x4C }
  - { offsetInCU: 0x147E1, offset: 0x147E1, size: 0x8, addend: 0x0, symName: __ZNSt8_Rb_treeISt4pairIiiES0_IKS1_cESt10_Select1stIS3_ESt4lessIS1_ESaIS3_EE6_M_endEv, symObjAddr: 0x51D8, symBinAddr: 0x100005AA8, symSize: 0x18 }
  - { offsetInCU: 0x1485A, offset: 0x1485A, size: 0x8, addend: 0x0, symName: __ZNSt8_Rb_treeISt4pairIiiES0_IKS1_cESt10_Select1stIS3_ESt4lessIS1_ESaIS3_EE15_M_destroy_nodeEPSt13_Rb_tree_nodeIS3_E, symObjAddr: 0x5134, symBinAddr: 0x100005A04, symSize: 0x58 }
  - { offsetInCU: 0x14862, offset: 0x14862, size: 0x8, addend: 0x0, symName: __ZNSt8_Rb_treeISt4pairIiiES0_IKS1_cESt10_Select1stIS3_ESt4lessIS1_ESaIS3_EE11_M_put_nodeEPSt13_Rb_tree_nodeIS3_E, symObjAddr: 0x518C, symBinAddr: 0x100005A5C, symSize: 0x4C }
  - { offsetInCU: 0x1490B, offset: 0x1490B, size: 0x8, addend: 0x0, symName: __ZNSt8_Rb_treeISt4pairIiiES0_IKS1_cESt10_Select1stIS3_ESt4lessIS1_ESaIS3_EE10_M_insert_IRKS3_NS9_11_Alloc_nodeEEESt17_Rb_tree_iteratorIS3_EPSt18_Rb_tree_node_baseSH_OT_RT0_, symObjAddr: 0x5040, symBinAddr: 0x100005910, symSize: 0xF4 }
  - { offsetInCU: 0x14913, offset: 0x14913, size: 0x8, addend: 0x0, symName: __ZNSt8_Rb_treeISt4pairIiiES0_IKS1_cESt10_Select1stIS3_ESt4lessIS1_ESaIS3_EE15_M_destroy_nodeEPSt13_Rb_tree_nodeIS3_E, symObjAddr: 0x5134, symBinAddr: 0x100005A04, symSize: 0x58 }
  - { offsetInCU: 0x14A53, offset: 0x14A53, size: 0x8, addend: 0x0, symName: __ZSt7forwardIRKSt4pairIKS0_IiiEcEEOT_RNSt16remove_referenceIS6_E4typeE, symObjAddr: 0x502C, symBinAddr: 0x1000058FC, symSize: 0x14 }
  - { offsetInCU: 0x14A5B, offset: 0x14A5B, size: 0x8, addend: 0x0, symName: __ZNSt8_Rb_treeISt4pairIiiES0_IKS1_cESt10_Select1stIS3_ESt4lessIS1_ESaIS3_EE10_M_insert_IRKS3_NS9_11_Alloc_nodeEEESt17_Rb_tree_iteratorIS3_EPSt18_Rb_tree_node_baseSH_OT_RT0_, symObjAddr: 0x5040, symBinAddr: 0x100005910, symSize: 0xF4 }
  - { offsetInCU: 0x14A21, offset: 0x14A21, size: 0x8, addend: 0x0, symName: __ZNKSt10_Select1stISt4pairIKS0_IiiEcEEclERKS3_, symObjAddr: 0x5014, symBinAddr: 0x1000058E4, symSize: 0x18 }
  - { offsetInCU: 0x14A29, offset: 0x14A29, size: 0x8, addend: 0x0, symName: __ZSt7forwardIRKSt4pairIKS0_IiiEcEEOT_RNSt16remove_referenceIS6_E4typeE, symObjAddr: 0x502C, symBinAddr: 0x1000058FC, symSize: 0x14 }
  - { offsetInCU: 0x14AC7, offset: 0x14AC7, size: 0x8, addend: 0x0, symName: __ZNSt20_Rb_tree_key_compareISt4lessISt4pairIiiEEEC2ERKS3_, symObjAddr: 0x4FFC, symBinAddr: 0x1000058CC, symSize: 0x18 }
  - { offsetInCU: 0x14ACF, offset: 0x14ACF, size: 0x8, addend: 0x0, symName: __ZNKSt10_Select1stISt4pairIKS0_IiiEcEEclERKS3_, symObjAddr: 0x5014, symBinAddr: 0x1000058E4, symSize: 0x18 }
  - { offsetInCU: 0x14BA6, offset: 0x14BA6, size: 0x8, addend: 0x0, symName: __ZSt4moveIRSaISt13_Rb_tree_nodeISt4pairIKS1_IiiEcEEEEONSt16remove_referenceIT_E4typeEOS9_, symObjAddr: 0x4FE8, symBinAddr: 0x1000058B8, symSize: 0x14 }
  - { offsetInCU: 0x14BAE, offset: 0x14BAE, size: 0x8, addend: 0x0, symName: __ZNSt20_Rb_tree_key_compareISt4lessISt4pairIiiEEEC2ERKS3_, symObjAddr: 0x4FFC, symBinAddr: 0x1000058CC, symSize: 0x18 }
  - { offsetInCU: 0x14B5D, offset: 0x14B5D, size: 0x8, addend: 0x0, symName: __ZN9__gnu_cxx5__ops14_Iter_comp_valI8CompareFEclINS_17__normal_iteratorIPP11Search_CellSt6vectorIS7_SaIS7_EEEES7_EEbT_RT0_, symObjAddr: 0x4F9C, symBinAddr: 0x10000586C, symSize: 0x4C }
  - { offsetInCU: 0x14B65, offset: 0x14B65, size: 0x8, addend: 0x0, symName: __ZSt4moveIRSaISt13_Rb_tree_nodeISt4pairIKS1_IiiEcEEEEONSt16remove_referenceIT_E4typeEOS9_, symObjAddr: 0x4FE8, symBinAddr: 0x1000058B8, symSize: 0x14 }
  - { offsetInCU: 0x14BCC, offset: 0x14BCC, size: 0x8, addend: 0x0, symName: __ZNK9__gnu_cxx17__normal_iteratorIPP11Search_CellSt6vectorIS2_SaIS2_EEEplEl, symObjAddr: 0x4F5C, symBinAddr: 0x10000582C, symSize: 0x40 }
  - { offsetInCU: 0x14BD4, offset: 0x14BD4, size: 0x8, addend: 0x0, symName: __ZN9__gnu_cxx5__ops14_Iter_comp_valI8CompareFEclINS_17__normal_iteratorIPP11Search_CellSt6vectorIS7_SaIS7_EEEES7_EEbT_RT0_, symObjAddr: 0x4F9C, symBinAddr: 0x10000586C, symSize: 0x4C }
  - { offsetInCU: 0x14D34, offset: 0x14D34, size: 0x8, addend: 0x0, symName: __ZSt12__relocate_aIPNSt7__cxx1112basic_stringIcSt11char_traitsIcESaIcEEES6_SaIS5_EET0_T_S9_S8_RT1_, symObjAddr: 0x4F00, symBinAddr: 0x1000057D0, symSize: 0x5C }
  - { offsetInCU: 0x14D3C, offset: 0x14D3C, size: 0x8, addend: 0x0, symName: __ZNK9__gnu_cxx17__normal_iteratorIPP11Search_CellSt6vectorIS2_SaIS2_EEEplEl, symObjAddr: 0x4F5C, symBinAddr: 0x10000582C, symSize: 0x40 }
  - { offsetInCU: 0x14D14, offset: 0x14D14, size: 0x8, addend: 0x0, symName: __ZNKSt6vectorINSt7__cxx1112basic_stringIcSt11char_traitsIcESaIcEEESaIS5_EE4sizeEv, symObjAddr: 0x4ED8, symBinAddr: 0x1000057A8, symSize: 0x28 }
  - { offsetInCU: 0x14D1C, offset: 0x14D1C, size: 0x8, addend: 0x0, symName: __ZSt12__relocate_aIPNSt7__cxx1112basic_stringIcSt11char_traitsIcESaIcEEES6_SaIS5_EET0_T_S9_S8_RT1_, symObjAddr: 0x4F00, symBinAddr: 0x1000057D0, symSize: 0x5C }
  - { offsetInCU: 0x14D43, offset: 0x14D43, size: 0x8, addend: 0x0, symName: __ZNKSt6vectorINSt7__cxx1112basic_stringIcSt11char_traitsIcESaIcEEESaIS5_EE8max_sizeEv, symObjAddr: 0x4EB8, symBinAddr: 0x100005788, symSize: 0x20 }
  - { offsetInCU: 0x14D4B, offset: 0x14D4B, size: 0x8, addend: 0x0, symName: __ZNKSt6vectorINSt7__cxx1112basic_stringIcSt11char_traitsIcESaIcEEESaIS5_EE4sizeEv, symObjAddr: 0x4ED8, symBinAddr: 0x1000057A8, symSize: 0x28 }
  - { offsetInCU: 0x14D72, offset: 0x14D72, size: 0x8, addend: 0x0, symName: __ZNSt12_Destroy_auxILb0EE9__destroyIPNSt7__cxx1112basic_stringIcSt11char_traitsIcESaIcEEEEEvT_S9_, symObjAddr: 0x4E6C, symBinAddr: 0x10000573C, symSize: 0x4C }
  - { offsetInCU: 0x14D7A, offset: 0x14D7A, size: 0x8, addend: 0x0, symName: __ZNKSt6vectorINSt7__cxx1112basic_stringIcSt11char_traitsIcESaIcEEESaIS5_EE8max_sizeEv, symObjAddr: 0x4EB8, symBinAddr: 0x100005788, symSize: 0x20 }
  - { offsetInCU: 0x14DC3, offset: 0x14DC3, size: 0x8, addend: 0x0, symName: __ZNSt15__new_allocatorINSt7__cxx1112basic_stringIcSt11char_traitsIcESaIcEEEE10deallocateEPS5_m, symObjAddr: 0x4E3C, symBinAddr: 0x10000570C, symSize: 0x30 }
  - { offsetInCU: 0x14DCB, offset: 0x14DCB, size: 0x8, addend: 0x0, symName: __ZNSt12_Destroy_auxILb0EE9__destroyIPNSt7__cxx1112basic_stringIcSt11char_traitsIcESaIcEEEEEvT_S9_, symObjAddr: 0x4E6C, symBinAddr: 0x10000573C, symSize: 0x4C }
  - { offsetInCU: 0x14EA4, offset: 0x14EA4, size: 0x8, addend: 0x0, symName: __ZSt12__relocate_aIPP11Search_CellS2_SaIS1_EET0_T_S5_S4_RT1_, symObjAddr: 0x4DE0, symBinAddr: 0x1000056B0, symSize: 0x5C }
  - { offsetInCU: 0x14EAC, offset: 0x14EAC, size: 0x8, addend: 0x0, symName: __ZNSt15__new_allocatorINSt7__cxx1112basic_stringIcSt11char_traitsIcESaIcEEEE10deallocateEPS5_m, symObjAddr: 0x4E3C, symBinAddr: 0x10000570C, symSize: 0x30 }
  - { offsetInCU: 0x14F19, offset: 0x14F19, size: 0x8, addend: 0x0, symName: __ZSt3maxImERKT_S2_S2_, symObjAddr: 0x4DA8, symBinAddr: 0x100005678, symSize: 0x38 }
  - { offsetInCU: 0x14F21, offset: 0x14F21, size: 0x8, addend: 0x0, symName: __ZSt12__relocate_aIPP11Search_CellS2_SaIS1_EET0_T_S5_S4_RT1_, symObjAddr: 0x4DE0, symBinAddr: 0x1000056B0, symSize: 0x5C }
  - { offsetInCU: 0x14F47, offset: 0x14F47, size: 0x8, addend: 0x0, symName: __ZNKSt6vectorIP11Search_CellSaIS1_EE8max_sizeEv, symObjAddr: 0x4D88, symBinAddr: 0x100005658, symSize: 0x20 }
  - { offsetInCU: 0x14F4F, offset: 0x14F4F, size: 0x8, addend: 0x0, symName: __ZSt3maxImERKT_S2_S2_, symObjAddr: 0x4DA8, symBinAddr: 0x100005678, symSize: 0x38 }
  - { offsetInCU: 0x14F76, offset: 0x14F76, size: 0x8, addend: 0x0, symName: __ZNSt20__uninitialized_copyILb1EE13__uninit_copyIN9__gnu_cxx17__normal_iteratorIPKP11Search_CellSt6vectorIS5_SaIS5_EEEEPS5_EET0_T_SE_SD_, symObjAddr: 0x4D5C, symBinAddr: 0x10000562C, symSize: 0x2C }
  - { offsetInCU: 0x14F7E, offset: 0x14F7E, size: 0x8, addend: 0x0, symName: __ZNKSt6vectorIP11Search_CellSaIS1_EE8max_sizeEv, symObjAddr: 0x4D88, symBinAddr: 0x100005658, symSize: 0x20 }
  - { offsetInCU: 0x14FE7, offset: 0x14FE7, size: 0x8, addend: 0x0, symName: __ZNSt12_Destroy_auxILb1EE9__destroyIPSt4pairIiiEEEvT_S5_, symObjAddr: 0x4D44, symBinAddr: 0x100005614, symSize: 0x18 }
  - { offsetInCU: 0x14FEF, offset: 0x14FEF, size: 0x8, addend: 0x0, symName: __ZNSt20__uninitialized_copyILb1EE13__uninit_copyIN9__gnu_cxx17__normal_iteratorIPKP11Search_CellSt6vectorIS5_SaIS5_EEEEPS5_EET0_T_SE_SD_, symObjAddr: 0x4D5C, symBinAddr: 0x10000562C, symSize: 0x2C }
  - { offsetInCU: 0x150AA, offset: 0x150AA, size: 0x8, addend: 0x0, symName: __ZSt18uninitialized_copyIPKSt4pairIiiEPS1_ET0_T_S6_S5_, symObjAddr: 0x4D10, symBinAddr: 0x1000055E0, symSize: 0x34 }
  - { offsetInCU: 0x150B2, offset: 0x150B2, size: 0x8, addend: 0x0, symName: __ZNSt12_Destroy_auxILb1EE9__destroyIPSt4pairIiiEEEvT_S5_, symObjAddr: 0x4D44, symBinAddr: 0x100005614, symSize: 0x18 }
  - { offsetInCU: 0x150FA, offset: 0x150FA, size: 0x8, addend: 0x0, symName: __ZNSt6vectorISt4pairIiiESaIS1_EE11_S_max_sizeERKS2_, symObjAddr: 0x4CBC, symBinAddr: 0x10000558C, symSize: 0x54 }
  - { offsetInCU: 0x15102, offset: 0x15102, size: 0x8, addend: 0x0, symName: __ZSt18uninitialized_copyIPKSt4pairIiiEPS1_ET0_T_S6_S5_, symObjAddr: 0x4D10, symBinAddr: 0x1000055E0, symSize: 0x34 }
  - { offsetInCU: 0x1525C, offset: 0x1525C, size: 0x8, addend: 0x0, symName: __ZNSt12_Vector_baseISt4pairIiiESaIS1_EE17_Vector_impl_dataC2Ev, symObjAddr: 0x4C90, symBinAddr: 0x100005560, symSize: 0x2C }
  - { offsetInCU: 0x15264, offset: 0x15264, size: 0x8, addend: 0x0, symName: __ZNSt6vectorISt4pairIiiESaIS1_EE11_S_max_sizeERKS2_, symObjAddr: 0x4CBC, symBinAddr: 0x10000558C, symSize: 0x54 }
  - { offsetInCU: 0x15274, offset: 0x15274, size: 0x8, addend: 0x0, symName: __ZNSt12_Destroy_auxILb1EE9__destroyIPP11Search_CellEEvT_S5_, symObjAddr: 0x4C78, symBinAddr: 0x100005548, symSize: 0x18 }
  - { offsetInCU: 0x1527C, offset: 0x1527C, size: 0x8, addend: 0x0, symName: __ZNSt12_Vector_baseISt4pairIiiESaIS1_EE17_Vector_impl_dataC2Ev, symObjAddr: 0x4C90, symBinAddr: 0x100005560, symSize: 0x2C }
  - { offsetInCU: 0x152B7, offset: 0x152B7, size: 0x8, addend: 0x0, symName: __ZNSt15__new_allocatorIP11Search_CellE10deallocateEPS1_m, symObjAddr: 0x4C48, symBinAddr: 0x100005518, symSize: 0x30 }
  - { offsetInCU: 0x152BF, offset: 0x152BF, size: 0x8, addend: 0x0, symName: __ZNSt12_Destroy_auxILb1EE9__destroyIPP11Search_CellEEvT_S5_, symObjAddr: 0x4C78, symBinAddr: 0x100005548, symSize: 0x18 }
  - { offsetInCU: 0x15474, offset: 0x15474, size: 0x8, addend: 0x0, symName: __ZSt13__adjust_heapIN9__gnu_cxx17__normal_iteratorIPP11Search_CellSt6vectorIS3_SaIS3_EEEElS3_NS0_5__ops15_Iter_comp_iterI8CompareFEEEvT_T0_SE_T1_T2_, symObjAddr: 0x4A70, symBinAddr: 0x100005340, symSize: 0x1D8 }
  - { offsetInCU: 0x1547C, offset: 0x1547C, size: 0x8, addend: 0x0, symName: __ZNSt15__new_allocatorIP11Search_CellE10deallocateEPS1_m, symObjAddr: 0x4C48, symBinAddr: 0x100005518, symSize: 0x30 }
  - { offsetInCU: 0x15435, offset: 0x15435, size: 0x8, addend: 0x0, symName: __ZNK9__gnu_cxx17__normal_iteratorIPKP11Search_CellSt6vectorIS2_SaIS2_EEE4baseEv, symObjAddr: 0x4A5C, symBinAddr: 0x10000532C, symSize: 0x14 }
  - { offsetInCU: 0x1543D, offset: 0x1543D, size: 0x8, addend: 0x0, symName: __ZSt13__adjust_heapIN9__gnu_cxx17__normal_iteratorIPP11Search_CellSt6vectorIS3_SaIS3_EEEElS3_NS0_5__ops15_Iter_comp_iterI8CompareFEEEvT_T0_SE_T1_T2_, symObjAddr: 0x4A70, symBinAddr: 0x100005340, symSize: 0x1D8 }
  - { offsetInCU: 0x1554F, offset: 0x1554F, size: 0x8, addend: 0x0, symName: __ZNSt17_Rb_tree_iteratorISt4pairIKS0_IiiEcEEC1EPSt18_Rb_tree_node_base, symObjAddr: 0x4A38, symBinAddr: 0x100005308, symSize: 0x24 }
  - { offsetInCU: 0x15557, offset: 0x15557, size: 0x8, addend: 0x0, symName: __ZNK9__gnu_cxx17__normal_iteratorIPKP11Search_CellSt6vectorIS2_SaIS2_EEE4baseEv, symObjAddr: 0x4A5C, symBinAddr: 0x10000532C, symSize: 0x14 }
  - { offsetInCU: 0x15542, offset: 0x15542, size: 0x8, addend: 0x0, symName: __ZNSt8_Rb_treeISt4pairIiiES0_IKS1_cESt10_Select1stIS3_ESt4lessIS1_ESaIS3_EE10_Auto_node9_M_insertES0_IPSt18_Rb_tree_node_baseSC_E, symObjAddr: 0x49EC, symBinAddr: 0x1000052BC, symSize: 0x4C }
  - { offsetInCU: 0x1554A, offset: 0x1554A, size: 0x8, addend: 0x0, symName: __ZNSt17_Rb_tree_iteratorISt4pairIKS0_IiiEcEEC1EPSt18_Rb_tree_node_base, symObjAddr: 0x4A38, symBinAddr: 0x100005308, symSize: 0x24 }
  - { offsetInCU: 0x15599, offset: 0x15599, size: 0x8, addend: 0x0, symName: __ZNKSt8_Rb_treeISt4pairIiiES0_IKS1_cESt10_Select1stIS3_ESt4lessIS1_ESaIS3_EE10_Auto_node6_M_keyEv, symObjAddr: 0x49CC, symBinAddr: 0x10000529C, symSize: 0x20 }
  - { offsetInCU: 0x155A1, offset: 0x155A1, size: 0x8, addend: 0x0, symName: __ZNSt8_Rb_treeISt4pairIiiES0_IKS1_cESt10_Select1stIS3_ESt4lessIS1_ESaIS3_EE10_Auto_node9_M_insertES0_IPSt18_Rb_tree_node_baseSC_E, symObjAddr: 0x49EC, symBinAddr: 0x1000052BC, symSize: 0x4C }
  - { offsetInCU: 0x155C8, offset: 0x155C8, size: 0x8, addend: 0x0, symName: __ZNSt8_Rb_treeISt4pairIiiES0_IKS1_cESt10_Select1stIS3_ESt4lessIS1_ESaIS3_EE29_M_get_insert_hint_unique_posESt23_Rb_tree_const_iteratorIS3_ERS2_, symObjAddr: 0x4694, symBinAddr: 0x100004F64, symSize: 0x338 }
  - { offsetInCU: 0x155D0, offset: 0x155D0, size: 0x8, addend: 0x0, symName: __ZNKSt8_Rb_treeISt4pairIiiES0_IKS1_cESt10_Select1stIS3_ESt4lessIS1_ESaIS3_EE10_Auto_node6_M_keyEv, symObjAddr: 0x49CC, symBinAddr: 0x10000529C, symSize: 0x20 }
  - { offsetInCU: 0x15708, offset: 0x15708, size: 0x8, addend: 0x0, symName: __ZNSt8_Rb_treeISt4pairIiiES0_IKS1_cESt10_Select1stIS3_ESt4lessIS1_ESaIS3_EE10_Auto_nodeD1Ev, symObjAddr: 0x4650, symBinAddr: 0x100004F20, symSize: 0x44 }
  - { offsetInCU: 0x15710, offset: 0x15710, size: 0x8, addend: 0x0, symName: __ZNSt8_Rb_treeISt4pairIiiES0_IKS1_cESt10_Select1stIS3_ESt4lessIS1_ESaIS3_EE29_M_get_insert_hint_unique_posESt23_Rb_tree_const_iteratorIS3_ERS2_, symObjAddr: 0x4694, symBinAddr: 0x100004F64, symSize: 0x338 }
  - { offsetInCU: 0x157E0, offset: 0x157E0, size: 0x8, addend: 0x0, symName: __ZNSt8_Rb_treeISt4pairIiiES0_IKS1_cESt10_Select1stIS3_ESt4lessIS1_ESaIS3_EE10_Auto_nodeC1IJRKSt21piecewise_construct_tSt5tupleIJOS1_EESF_IJEEEEERS9_DpOT_, symObjAddr: 0x45D4, symBinAddr: 0x100004EA4, symSize: 0x7C }
  - { offsetInCU: 0x157E8, offset: 0x157E8, size: 0x8, addend: 0x0, symName: __ZNSt8_Rb_treeISt4pairIiiES0_IKS1_cESt10_Select1stIS3_ESt4lessIS1_ESaIS3_EE10_Auto_nodeD1Ev, symObjAddr: 0x4650, symBinAddr: 0x100004F20, symSize: 0x44 }
  - { offsetInCU: 0x15825, offset: 0x15825, size: 0x8, addend: 0x0, symName: __ZSt7forwardISt5tupleIJEEEOT_RNSt16remove_referenceIS2_E4typeE, symObjAddr: 0x45C0, symBinAddr: 0x100004E90, symSize: 0x14 }
  - { offsetInCU: 0x1582D, offset: 0x1582D, size: 0x8, addend: 0x0, symName: __ZNSt8_Rb_treeISt4pairIiiES0_IKS1_cESt10_Select1stIS3_ESt4lessIS1_ESaIS3_EE10_Auto_nodeC1IJRKSt21piecewise_construct_tSt5tupleIJOS1_EESF_IJEEEEERS9_DpOT_, symObjAddr: 0x45D4, symBinAddr: 0x100004EA4, symSize: 0x7C }
  - { offsetInCU: 0x1589A, offset: 0x1589A, size: 0x8, addend: 0x0, symName: __ZSt7forwardISt5tupleIJOSt4pairIiiEEEEOT_RNSt16remove_referenceIS5_E4typeE, symObjAddr: 0x45AC, symBinAddr: 0x100004E7C, symSize: 0x14 }
  - { offsetInCU: 0x158A2, offset: 0x158A2, size: 0x8, addend: 0x0, symName: __ZSt7forwardISt5tupleIJEEEOT_RNSt16remove_referenceIS2_E4typeE, symObjAddr: 0x45C0, symBinAddr: 0x100004E90, symSize: 0x14 }
  - { offsetInCU: 0x158F0, offset: 0x158F0, size: 0x8, addend: 0x0, symName: __ZSt7forwardIRKSt21piecewise_construct_tEOT_RNSt16remove_referenceIS3_E4typeE, symObjAddr: 0x4598, symBinAddr: 0x100004E68, symSize: 0x14 }
  - { offsetInCU: 0x158F8, offset: 0x158F8, size: 0x8, addend: 0x0, symName: __ZSt7forwardISt5tupleIJOSt4pairIiiEEEEOT_RNSt16remove_referenceIS5_E4typeE, symObjAddr: 0x45AC, symBinAddr: 0x100004E7C, symSize: 0x14 }
  - { offsetInCU: 0x15940, offset: 0x15940, size: 0x8, addend: 0x0, symName: __ZNSt5tupleIJOSt4pairIiiEEEC1IJS1_ELb1ELb1EEEDpOT_, symObjAddr: 0x455C, symBinAddr: 0x100004E2C, symSize: 0x3C }
  - { offsetInCU: 0x15948, offset: 0x15948, size: 0x8, addend: 0x0, symName: __ZSt7forwardIRKSt21piecewise_construct_tEOT_RNSt16remove_referenceIS3_E4typeE, symObjAddr: 0x4598, symBinAddr: 0x100004E68, symSize: 0x14 }
  - { offsetInCU: 0x159CB, offset: 0x159CB, size: 0x8, addend: 0x0, symName: __ZSt7forwardISt4pairIiiEEOT_RNSt16remove_referenceIS2_E4typeE, symObjAddr: 0x4548, symBinAddr: 0x100004E18, symSize: 0x14 }
  - { offsetInCU: 0x159D3, offset: 0x159D3, size: 0x8, addend: 0x0, symName: __ZNSt5tupleIJOSt4pairIiiEEEC1IJS1_ELb1ELb1EEEDpOT_, symObjAddr: 0x455C, symBinAddr: 0x100004E2C, symSize: 0x3C }
  - { offsetInCU: 0x159F8, offset: 0x159F8, size: 0x8, addend: 0x0, symName: __ZStltIiiEbRKSt4pairIT_T0_ES5_, symObjAddr: 0x44E0, symBinAddr: 0x100004DB0, symSize: 0x68 }
  - { offsetInCU: 0x15A00, offset: 0x15A00, size: 0x8, addend: 0x0, symName: __ZSt7forwardISt4pairIiiEEOT_RNSt16remove_referenceIS2_E4typeE, symObjAddr: 0x4548, symBinAddr: 0x100004E18, symSize: 0x14 }
  - { offsetInCU: 0x15A2C, offset: 0x15A2C, size: 0x8, addend: 0x0, symName: __ZNSt13_Rb_tree_nodeISt4pairIKS0_IiiEcEE9_M_valptrEv, symObjAddr: 0x44C0, symBinAddr: 0x100004D90, symSize: 0x20 }
  - { offsetInCU: 0x15A34, offset: 0x15A34, size: 0x8, addend: 0x0, symName: __ZStltIiiEbRKSt4pairIT_T0_ES5_, symObjAddr: 0x44E0, symBinAddr: 0x100004DB0, symSize: 0x68 }
  - { offsetInCU: 0x15A5B, offset: 0x15A5B, size: 0x8, addend: 0x0, symName: __ZNKSt8_Rb_treeISt4pairIiiES0_IKS1_cESt10_Select1stIS3_ESt4lessIS1_ESaIS3_EE8key_compEv, symObjAddr: 0x44A8, symBinAddr: 0x100004D78, symSize: 0x18 }
  - { offsetInCU: 0x15A63, offset: 0x15A63, size: 0x8, addend: 0x0, symName: __ZNSt13_Rb_tree_nodeISt4pairIKS0_IiiEcEE9_M_valptrEv, symObjAddr: 0x44C0, symBinAddr: 0x100004D90, symSize: 0x20 }
  - { offsetInCU: 0x15A8A, offset: 0x15A8A, size: 0x8, addend: 0x0, symName: __ZNSt8_Rb_treeISt4pairIiiES0_IKS1_cESt10_Select1stIS3_ESt4lessIS1_ESaIS3_EE11lower_boundERS2_, symObjAddr: 0x4460, symBinAddr: 0x100004D30, symSize: 0x48 }
  - { offsetInCU: 0x15A92, offset: 0x15A92, size: 0x8, addend: 0x0, symName: __ZNKSt8_Rb_treeISt4pairIiiES0_IKS1_cESt10_Select1stIS3_ESt4lessIS1_ESaIS3_EE8key_compEv, symObjAddr: 0x44A8, symBinAddr: 0x100004D78, symSize: 0x18 }
  - { offsetInCU: 0x15ACD, offset: 0x15ACD, size: 0x8, addend: 0x0, symName: __ZNKSt8_Rb_treeISt4pairIiiES0_IKS1_cESt10_Select1stIS3_ESt4lessIS1_ESaIS3_EE9_M_mbeginEv, symObjAddr: 0x4448, symBinAddr: 0x100004D18, symSize: 0x18 }
  - { offsetInCU: 0x15AD5, offset: 0x15AD5, size: 0x8, addend: 0x0, symName: __ZNSt8_Rb_treeISt4pairIiiES0_IKS1_cESt10_Select1stIS3_ESt4lessIS1_ESaIS3_EE11lower_boundERS2_, symObjAddr: 0x4460, symBinAddr: 0x100004D30, symSize: 0x48 }
  - { offsetInCU: 0x15AFC, offset: 0x15AFC, size: 0x8, addend: 0x0, symName: __ZNSt8_Rb_treeISt4pairIiiES0_IKS1_cESt10_Select1stIS3_ESt4lessIS1_ESaIS3_EE12_M_drop_nodeEPSt13_Rb_tree_nodeIS3_E, symObjAddr: 0x4414, symBinAddr: 0x100004CE4, symSize: 0x34 }
  - { offsetInCU: 0x15B04, offset: 0x15B04, size: 0x8, addend: 0x0, symName: __ZNKSt8_Rb_treeISt4pairIiiES0_IKS1_cESt10_Select1stIS3_ESt4lessIS1_ESaIS3_EE9_M_mbeginEv, symObjAddr: 0x4448, symBinAddr: 0x100004D18, symSize: 0x18 }
  - { offsetInCU: 0x15B3F, offset: 0x15B3F, size: 0x8, addend: 0x0, symName: __ZNSt8_Rb_treeISt4pairIiiES0_IKS1_cESt10_Select1stIS3_ESt4lessIS1_ESaIS3_EE7_S_leftEPSt18_Rb_tree_node_base, symObjAddr: 0x43FC, symBinAddr: 0x100004CCC, symSize: 0x18 }
  - { offsetInCU: 0x15B47, offset: 0x15B47, size: 0x8, addend: 0x0, symName: __ZNSt8_Rb_treeISt4pairIiiES0_IKS1_cESt10_Select1stIS3_ESt4lessIS1_ESaIS3_EE12_M_drop_nodeEPSt13_Rb_tree_nodeIS3_E, symObjAddr: 0x4414, symBinAddr: 0x100004CE4, symSize: 0x34 }
  - { offsetInCU: 0x15B71, offset: 0x15B71, size: 0x8, addend: 0x0, symName: __ZNSt8_Rb_treeISt4pairIiiES0_IKS1_cESt10_Select1stIS3_ESt4lessIS1_ESaIS3_EE8_S_rightEPSt18_Rb_tree_node_base, symObjAddr: 0x43E4, symBinAddr: 0x100004CB4, symSize: 0x18 }
  - { offsetInCU: 0x15B79, offset: 0x15B79, size: 0x8, addend: 0x0, symName: __ZNSt8_Rb_treeISt4pairIiiES0_IKS1_cESt10_Select1stIS3_ESt4lessIS1_ESaIS3_EE7_S_leftEPSt18_Rb_tree_node_base, symObjAddr: 0x43FC, symBinAddr: 0x100004CCC, symSize: 0x18 }
  - { offsetInCU: 0x15C0C, offset: 0x15C0C, size: 0x8, addend: 0x0, symName: __ZNSt15__new_allocatorISt13_Rb_tree_nodeISt4pairIKS1_IiiEcEEED2Ev, symObjAddr: 0x43D0, symBinAddr: 0x100004CA0, symSize: 0x14 }
  - { offsetInCU: 0x15C14, offset: 0x15C14, size: 0x8, addend: 0x0, symName: __ZNSt8_Rb_treeISt4pairIiiES0_IKS1_cESt10_Select1stIS3_ESt4lessIS1_ESaIS3_EE8_S_rightEPSt18_Rb_tree_node_base, symObjAddr: 0x43E4, symBinAddr: 0x100004CB4, symSize: 0x18 }
  - { offsetInCU: 0x15BF8, offset: 0x15BF8, size: 0x8, addend: 0x0, symName: __ZNSt8_Rb_treeISt4pairIiiES0_IKS1_cESt10_Select1stIS3_ESt4lessIS1_ESaIS3_EE17_M_insert_unique_IRKS3_NS9_11_Alloc_nodeEEESt17_Rb_tree_iteratorIS3_ESt23_Rb_tree_const_iteratorIS3_EOT_RT0_, symObjAddr: 0x4340, symBinAddr: 0x100004C10, symSize: 0x90 }
  - { offsetInCU: 0x15C00, offset: 0x15C00, size: 0x8, addend: 0x0, symName: __ZNSt15__new_allocatorISt13_Rb_tree_nodeISt4pairIKS1_IiiEcEEED2Ev, symObjAddr: 0x43D0, symBinAddr: 0x100004CA0, symSize: 0x14 }
  - { offsetInCU: 0x15C91, offset: 0x15C91, size: 0x8, addend: 0x0, symName: __ZNSt8_Rb_treeISt4pairIiiES0_IKS1_cESt10_Select1stIS3_ESt4lessIS1_ESaIS3_EE3endEv, symObjAddr: 0x4318, symBinAddr: 0x100004BE8, symSize: 0x28 }
  - { offsetInCU: 0x15C99, offset: 0x15C99, size: 0x8, addend: 0x0, symName: __ZNSt8_Rb_treeISt4pairIiiES0_IKS1_cESt10_Select1stIS3_ESt4lessIS1_ESaIS3_EE17_M_insert_unique_IRKS3_NS9_11_Alloc_nodeEEESt17_Rb_tree_iteratorIS3_ESt23_Rb_tree_const_iteratorIS3_EOT_RT0_, symObjAddr: 0x4340, symBinAddr: 0x100004C10, symSize: 0x90 }
  - { offsetInCU: 0x15D4A, offset: 0x15D4A, size: 0x8, addend: 0x0, symName: __ZNSt8_Rb_treeISt4pairIiiES0_IKS1_cESt10_Select1stIS3_ESt4lessIS1_ESaIS3_EE11_Alloc_nodeC1ERS9_, symObjAddr: 0x42F4, symBinAddr: 0x100004BC4, symSize: 0x24 }
  - { offsetInCU: 0x15D52, offset: 0x15D52, size: 0x8, addend: 0x0, symName: __ZNSt8_Rb_treeISt4pairIiiES0_IKS1_cESt10_Select1stIS3_ESt4lessIS1_ESaIS3_EE3endEv, symObjAddr: 0x4318, symBinAddr: 0x100004BE8, symSize: 0x28 }
  - { offsetInCU: 0x15D24, offset: 0x15D24, size: 0x8, addend: 0x0, symName: __ZNKSt16initializer_listISt4pairIKS0_IiiEcEE4sizeEv, symObjAddr: 0x42DC, symBinAddr: 0x100004BAC, symSize: 0x18 }
  - { offsetInCU: 0x15D2C, offset: 0x15D2C, size: 0x8, addend: 0x0, symName: __ZNSt8_Rb_treeISt4pairIiiES0_IKS1_cESt10_Select1stIS3_ESt4lessIS1_ESaIS3_EE11_Alloc_nodeC1ERS9_, symObjAddr: 0x42F4, symBinAddr: 0x100004BC4, symSize: 0x24 }
  - { offsetInCU: 0x15E15, offset: 0x15E15, size: 0x8, addend: 0x0, symName: __ZNSt8_Rb_treeISt4pairIiiES0_IKS1_cESt10_Select1stIS3_ESt4lessIS1_ESaIS3_EE13_Rb_tree_implIS7_Lb1EEC1ERKS7_OSaISt13_Rb_tree_nodeIS3_EE, symObjAddr: 0x4274, symBinAddr: 0x100004B44, symSize: 0x68 }
  - { offsetInCU: 0x15E1D, offset: 0x15E1D, size: 0x8, addend: 0x0, symName: __ZNKSt16initializer_listISt4pairIKS0_IiiEcEE4sizeEv, symObjAddr: 0x42DC, symBinAddr: 0x100004BAC, symSize: 0x18 }
  - { offsetInCU: 0x15FB6, offset: 0x15FB6, size: 0x8, addend: 0x0, symName: __ZSt11__push_heapIN9__gnu_cxx17__normal_iteratorIPP11Search_CellSt6vectorIS3_SaIS3_EEEElS3_NS0_5__ops14_Iter_comp_valI8CompareFEEEvT_T0_SE_T1_RT2_, symObjAddr: 0x414C, symBinAddr: 0x100004A1C, symSize: 0x128 }
  - { offsetInCU: 0x15FBE, offset: 0x15FBE, size: 0x8, addend: 0x0, symName: __ZNSt8_Rb_treeISt4pairIiiES0_IKS1_cESt10_Select1stIS3_ESt4lessIS1_ESaIS3_EE13_Rb_tree_implIS7_Lb1EEC1ERKS7_OSaISt13_Rb_tree_nodeIS3_EE, symObjAddr: 0x4274, symBinAddr: 0x100004B44, symSize: 0x68 }
  - { offsetInCU: 0x15FB3, offset: 0x15FB3, size: 0x8, addend: 0x0, symName: __ZSt4moveIRP11Search_CellEONSt16remove_referenceIT_E4typeEOS4_, symObjAddr: 0x4138, symBinAddr: 0x100004A08, symSize: 0x14 }
  - { offsetInCU: 0x15FBB, offset: 0x15FBB, size: 0x8, addend: 0x0, symName: __ZSt11__push_heapIN9__gnu_cxx17__normal_iteratorIPP11Search_CellSt6vectorIS3_SaIS3_EEEElS3_NS0_5__ops14_Iter_comp_valI8CompareFEEEvT_T0_SE_T1_RT2_, symObjAddr: 0x414C, symBinAddr: 0x100004A1C, symSize: 0x128 }
  - { offsetInCU: 0x15FB0, offset: 0x15FB0, size: 0x8, addend: 0x0, symName: __ZNK9__gnu_cxx17__normal_iteratorIPP11Search_CellSt6vectorIS2_SaIS2_EEEdeEv, symObjAddr: 0x4120, symBinAddr: 0x1000049F0, symSize: 0x18 }
  - { offsetInCU: 0x15FB8, offset: 0x15FB8, size: 0x8, addend: 0x0, symName: __ZSt4moveIRP11Search_CellEONSt16remove_referenceIT_E4typeEOS4_, symObjAddr: 0x4138, symBinAddr: 0x100004A08, symSize: 0x14 }
  - { offsetInCU: 0x15FDF, offset: 0x15FDF, size: 0x8, addend: 0x0, symName: __ZNK9__gnu_cxx17__normal_iteratorIPP11Search_CellSt6vectorIS2_SaIS2_EEEmiEl, symObjAddr: 0x40DC, symBinAddr: 0x1000049AC, symSize: 0x44 }
  - { offsetInCU: 0x15FE7, offset: 0x15FE7, size: 0x8, addend: 0x0, symName: __ZNK9__gnu_cxx17__normal_iteratorIPP11Search_CellSt6vectorIS2_SaIS2_EEEdeEv, symObjAddr: 0x4120, symBinAddr: 0x1000049F0, symSize: 0x18 }
  - { offsetInCU: 0x16080, offset: 0x16080, size: 0x8, addend: 0x0, symName: __ZN9__gnu_cxx5__ops14_Iter_comp_valI8CompareFEC1ES2_, symObjAddr: 0x40B8, symBinAddr: 0x100004988, symSize: 0x24 }
  - { offsetInCU: 0x16088, offset: 0x16088, size: 0x8, addend: 0x0, symName: __ZNK9__gnu_cxx17__normal_iteratorIPP11Search_CellSt6vectorIS2_SaIS2_EEEmiEl, symObjAddr: 0x40DC, symBinAddr: 0x1000049AC, symSize: 0x44 }
  - { offsetInCU: 0x160BF, offset: 0x160BF, size: 0x8, addend: 0x0, symName: __ZNK9__gnu_cxx17__normal_iteratorIPNSt7__cxx1112basic_stringIcSt11char_traitsIcESaIcEEESt6vectorIS6_SaIS6_EEE4baseEv, symObjAddr: 0x40A4, symBinAddr: 0x100004974, symSize: 0x14 }
  - { offsetInCU: 0x160C7, offset: 0x160C7, size: 0x8, addend: 0x0, symName: __ZN9__gnu_cxx5__ops14_Iter_comp_valI8CompareFEC1ES2_, symObjAddr: 0x40B8, symBinAddr: 0x100004988, symSize: 0x24 }
  - { offsetInCU: 0x160EE, offset: 0x160EE, size: 0x8, addend: 0x0, symName: __ZNSt6vectorINSt7__cxx1112basic_stringIcSt11char_traitsIcESaIcEEESaIS5_EE11_S_relocateEPS5_S8_S8_RS6_, symObjAddr: 0x4070, symBinAddr: 0x100004940, symSize: 0x34 }
  - { offsetInCU: 0x160F6, offset: 0x160F6, size: 0x8, addend: 0x0, symName: __ZNK9__gnu_cxx17__normal_iteratorIPNSt7__cxx1112basic_stringIcSt11char_traitsIcESaIcEEESt6vectorIS6_SaIS6_EEE4baseEv, symObjAddr: 0x40A4, symBinAddr: 0x100004974, symSize: 0x14 }
  - { offsetInCU: 0x1615C, offset: 0x1615C, size: 0x8, addend: 0x0, symName: __ZNSt12_Vector_baseINSt7__cxx1112basic_stringIcSt11char_traitsIcESaIcEEESaIS5_EE11_M_allocateEm, symObjAddr: 0x4020, symBinAddr: 0x1000048F0, symSize: 0x50 }
  - { offsetInCU: 0x16164, offset: 0x16164, size: 0x8, addend: 0x0, symName: __ZNSt6vectorINSt7__cxx1112basic_stringIcSt11char_traitsIcESaIcEEESaIS5_EE11_S_relocateEPS5_S8_S8_RS6_, symObjAddr: 0x4070, symBinAddr: 0x100004940, symSize: 0x34 }
  - { offsetInCU: 0x162C8, offset: 0x162C8, size: 0x8, addend: 0x0, symName: __ZN9__gnu_cxxmiIPNSt7__cxx1112basic_stringIcSt11char_traitsIcESaIcEEESt6vectorIS6_SaIS6_EEEENS_17__normal_iteratorIT_T0_E15difference_typeERKSE_SH_, symObjAddr: 0x3FE0, symBinAddr: 0x1000048B0, symSize: 0x40 }
  - { offsetInCU: 0x162D0, offset: 0x162D0, size: 0x8, addend: 0x0, symName: __ZNSt12_Vector_baseINSt7__cxx1112basic_stringIcSt11char_traitsIcESaIcEEESaIS5_EE11_M_allocateEm, symObjAddr: 0x4020, symBinAddr: 0x1000048F0, symSize: 0x50 }
  - { offsetInCU: 0x16248, offset: 0x16248, size: 0x8, addend: 0x0, symName: __ZNSt6vectorINSt7__cxx1112basic_stringIcSt11char_traitsIcESaIcEEESaIS5_EE5beginEv, symObjAddr: 0x3FBC, symBinAddr: 0x10000488C, symSize: 0x24 }
  - { offsetInCU: 0x16250, offset: 0x16250, size: 0x8, addend: 0x0, symName: __ZN9__gnu_cxxmiIPNSt7__cxx1112basic_stringIcSt11char_traitsIcESaIcEEESt6vectorIS6_SaIS6_EEEENS_17__normal_iteratorIT_T0_E15difference_typeERKSE_SH_, symObjAddr: 0x3FE0, symBinAddr: 0x1000048B0, symSize: 0x40 }
  - { offsetInCU: 0x16277, offset: 0x16277, size: 0x8, addend: 0x0, symName: __ZNKSt6vectorINSt7__cxx1112basic_stringIcSt11char_traitsIcESaIcEEESaIS5_EE12_M_check_lenEmPKc, symObjAddr: 0x3EEC, symBinAddr: 0x1000047BC, symSize: 0xD0 }
  - { offsetInCU: 0x1627F, offset: 0x1627F, size: 0x8, addend: 0x0, symName: __ZNSt6vectorINSt7__cxx1112basic_stringIcSt11char_traitsIcESaIcEEESaIS5_EE5beginEv, symObjAddr: 0x3FBC, symBinAddr: 0x10000488C, symSize: 0x24 }
  - { offsetInCU: 0x16381, offset: 0x16381, size: 0x8, addend: 0x0, symName: __ZN9__gnu_cxx17__normal_iteratorIPNSt7__cxx1112basic_stringIcSt11char_traitsIcESaIcEEESt6vectorIS6_SaIS6_EEEC1ERKS7_, symObjAddr: 0x3EC4, symBinAddr: 0x100004794, symSize: 0x28 }
  - { offsetInCU: 0x16389, offset: 0x16389, size: 0x8, addend: 0x0, symName: __ZNKSt6vectorINSt7__cxx1112basic_stringIcSt11char_traitsIcESaIcEEESaIS5_EE12_M_check_lenEmPKc, symObjAddr: 0x3EEC, symBinAddr: 0x1000047BC, symSize: 0xD0 }
  - { offsetInCU: 0x16437, offset: 0x16437, size: 0x8, addend: 0x0, symName: __ZSt7forwardIRKNSt7__cxx1112basic_stringIcSt11char_traitsIcESaIcEEEEOT_RNSt16remove_referenceIS8_E4typeE, symObjAddr: 0x3EB0, symBinAddr: 0x100004780, symSize: 0x14 }
  - { offsetInCU: 0x1643F, offset: 0x1643F, size: 0x8, addend: 0x0, symName: __ZN9__gnu_cxx17__normal_iteratorIPNSt7__cxx1112basic_stringIcSt11char_traitsIcESaIcEEESt6vectorIS6_SaIS6_EEEC1ERKS7_, symObjAddr: 0x3EC4, symBinAddr: 0x100004794, symSize: 0x28 }
  - { offsetInCU: 0x16464, offset: 0x16464, size: 0x8, addend: 0x0, symName: __ZSt8_DestroyIPNSt7__cxx1112basic_stringIcSt11char_traitsIcESaIcEEEEvT_S7_, symObjAddr: 0x3E88, symBinAddr: 0x100004758, symSize: 0x28 }
  - { offsetInCU: 0x1646C, offset: 0x1646C, size: 0x8, addend: 0x0, symName: __ZSt7forwardIRKNSt7__cxx1112basic_stringIcSt11char_traitsIcESaIcEEEEOT_RNSt16remove_referenceIS8_E4typeE, symObjAddr: 0x3EB0, symBinAddr: 0x100004780, symSize: 0x14 }
  - { offsetInCU: 0x164BB, offset: 0x164BB, size: 0x8, addend: 0x0, symName: __ZNK9__gnu_cxx17__normal_iteratorIPP11Search_CellSt6vectorIS2_SaIS2_EEE4baseEv, symObjAddr: 0x3E74, symBinAddr: 0x100004744, symSize: 0x14 }
  - { offsetInCU: 0x164C3, offset: 0x164C3, size: 0x8, addend: 0x0, symName: __ZSt8_DestroyIPNSt7__cxx1112basic_stringIcSt11char_traitsIcESaIcEEEEvT_S7_, symObjAddr: 0x3E88, symBinAddr: 0x100004758, symSize: 0x28 }
  - { offsetInCU: 0x164EA, offset: 0x164EA, size: 0x8, addend: 0x0, symName: __ZNSt6vectorIP11Search_CellSaIS1_EE11_S_relocateEPS1_S4_S4_RS2_, symObjAddr: 0x3E40, symBinAddr: 0x100004710, symSize: 0x34 }
  - { offsetInCU: 0x164F2, offset: 0x164F2, size: 0x8, addend: 0x0, symName: __ZNK9__gnu_cxx17__normal_iteratorIPP11Search_CellSt6vectorIS2_SaIS2_EEE4baseEv, symObjAddr: 0x3E74, symBinAddr: 0x100004744, symSize: 0x14 }
  - { offsetInCU: 0x16558, offset: 0x16558, size: 0x8, addend: 0x0, symName: __ZNSt12_Vector_baseIP11Search_CellSaIS1_EE11_M_allocateEm, symObjAddr: 0x3DF0, symBinAddr: 0x1000046C0, symSize: 0x50 }
  - { offsetInCU: 0x16560, offset: 0x16560, size: 0x8, addend: 0x0, symName: __ZNSt6vectorIP11Search_CellSaIS1_EE11_S_relocateEPS1_S4_S4_RS2_, symObjAddr: 0x3E40, symBinAddr: 0x100004710, symSize: 0x34 }
  - { offsetInCU: 0x165CD, offset: 0x165CD, size: 0x8, addend: 0x0, symName: __ZNKSt6vectorIP11Search_CellSaIS1_EE12_M_check_lenEmPKc, symObjAddr: 0x3D20, symBinAddr: 0x1000045F0, symSize: 0xD0 }
  - { offsetInCU: 0x165D5, offset: 0x165D5, size: 0x8, addend: 0x0, symName: __ZNSt12_Vector_baseIP11Search_CellSaIS1_EE11_M_allocateEm, symObjAddr: 0x3DF0, symBinAddr: 0x1000046C0, symSize: 0x50 }
  - { offsetInCU: 0x166EF, offset: 0x166EF, size: 0x8, addend: 0x0, symName: __ZSt7forwardIRKP11Search_CellEOT_RNSt16remove_referenceIS4_E4typeE, symObjAddr: 0x3D0C, symBinAddr: 0x1000045DC, symSize: 0x14 }
  - { offsetInCU: 0x166F7, offset: 0x166F7, size: 0x8, addend: 0x0, symName: __ZNKSt6vectorIP11Search_CellSaIS1_EE12_M_check_lenEmPKc, symObjAddr: 0x3D20, symBinAddr: 0x1000045F0, symSize: 0xD0 }
  - { offsetInCU: 0x167C4, offset: 0x167C4, size: 0x8, addend: 0x0, symName: __ZSt18uninitialized_copyIN9__gnu_cxx17__normal_iteratorIPKP11Search_CellSt6vectorIS3_SaIS3_EEEEPS3_ET0_T_SC_SB_, symObjAddr: 0x3CD0, symBinAddr: 0x1000045A0, symSize: 0x3C }
  - { offsetInCU: 0x167CC, offset: 0x167CC, size: 0x8, addend: 0x0, symName: __ZSt7forwardIRKP11Search_CellEOT_RNSt16remove_referenceIS4_E4typeE, symObjAddr: 0x3D0C, symBinAddr: 0x1000045DC, symSize: 0x14 }
  - { offsetInCU: 0x167FC, offset: 0x167FC, size: 0x8, addend: 0x0, symName: __ZN9__gnu_cxx17__normal_iteratorIPKP11Search_CellSt6vectorIS2_SaIS2_EEEC1ERKS4_, symObjAddr: 0x3CA8, symBinAddr: 0x100004578, symSize: 0x28 }
  - { offsetInCU: 0x16804, offset: 0x16804, size: 0x8, addend: 0x0, symName: __ZSt18uninitialized_copyIN9__gnu_cxx17__normal_iteratorIPKP11Search_CellSt6vectorIS3_SaIS3_EEEEPS3_ET0_T_SC_SB_, symObjAddr: 0x3CD0, symBinAddr: 0x1000045A0, symSize: 0x3C }
  - { offsetInCU: 0x167E6, offset: 0x167E6, size: 0x8, addend: 0x0, symName: __ZNSt12_Vector_baseIP11Search_CellSaIS1_EE17_M_create_storageEm, symObjAddr: 0x3C48, symBinAddr: 0x100004518, symSize: 0x60 }
  - { offsetInCU: 0x167EE, offset: 0x167EE, size: 0x8, addend: 0x0, symName: __ZN9__gnu_cxx17__normal_iteratorIPKP11Search_CellSt6vectorIS2_SaIS2_EEEC1ERKS4_, symObjAddr: 0x3CA8, symBinAddr: 0x100004578, symSize: 0x28 }
  - { offsetInCU: 0x16893, offset: 0x16893, size: 0x8, addend: 0x0, symName: __ZNSt12_Vector_baseIP11Search_CellSaIS1_EE12_Vector_implC1ERKS2_, symObjAddr: 0x3BFC, symBinAddr: 0x1000044CC, symSize: 0x4C }
  - { offsetInCU: 0x1689B, offset: 0x1689B, size: 0x8, addend: 0x0, symName: __ZNSt12_Vector_baseIP11Search_CellSaIS1_EE17_M_create_storageEm, symObjAddr: 0x3C48, symBinAddr: 0x100004518, symSize: 0x60 }
  - { offsetInCU: 0x1694D, offset: 0x1694D, size: 0x8, addend: 0x0, symName: __ZSt8_DestroyIPSt4pairIiiEEvT_S3_, symObjAddr: 0x3BD4, symBinAddr: 0x1000044A4, symSize: 0x28 }
  - { offsetInCU: 0x16955, offset: 0x16955, size: 0x8, addend: 0x0, symName: __ZNSt12_Vector_baseIP11Search_CellSaIS1_EE12_Vector_implC1ERKS2_, symObjAddr: 0x3BFC, symBinAddr: 0x1000044CC, symSize: 0x4C }
  - { offsetInCU: 0x16A0B, offset: 0x16A0B, size: 0x8, addend: 0x0, symName: __ZSt22__uninitialized_copy_aIPKSt4pairIiiEPS1_S1_ET0_T_S6_S5_RSaIT1_E, symObjAddr: 0x3BA4, symBinAddr: 0x100004474, symSize: 0x30 }
  - { offsetInCU: 0x16A13, offset: 0x16A13, size: 0x8, addend: 0x0, symName: __ZSt8_DestroyIPSt4pairIiiEEvT_S3_, symObjAddr: 0x3BD4, symBinAddr: 0x1000044A4, symSize: 0x28 }
  - { offsetInCU: 0x169FB, offset: 0x169FB, size: 0x8, addend: 0x0, symName: __ZNSt12_Vector_baseISt4pairIiiESaIS1_EE11_M_allocateEm, symObjAddr: 0x3B54, symBinAddr: 0x100004424, symSize: 0x50 }
  - { offsetInCU: 0x16A03, offset: 0x16A03, size: 0x8, addend: 0x0, symName: __ZSt22__uninitialized_copy_aIPKSt4pairIiiEPS1_S1_ET0_T_S6_S5_RSaIT1_E, symObjAddr: 0x3BA4, symBinAddr: 0x100004474, symSize: 0x30 }
  - { offsetInCU: 0x16A70, offset: 0x16A70, size: 0x8, addend: 0x0, symName: __ZNSt6vectorISt4pairIiiESaIS1_EE17_S_check_init_lenEmRKS2_, symObjAddr: 0x3AD0, symBinAddr: 0x1000043A0, symSize: 0x84 }
  - { offsetInCU: 0x16A78, offset: 0x16A78, size: 0x8, addend: 0x0, symName: __ZNSt12_Vector_baseISt4pairIiiESaIS1_EE11_M_allocateEm, symObjAddr: 0x3B54, symBinAddr: 0x100004424, symSize: 0x50 }
  - { offsetInCU: 0x16BBE, offset: 0x16BBE, size: 0x8, addend: 0x0, symName: __ZNKSt16initializer_listISt4pairIiiEE4sizeEv, symObjAddr: 0x3AB8, symBinAddr: 0x100004388, symSize: 0x18 }
  - { offsetInCU: 0x16BC6, offset: 0x16BC6, size: 0x8, addend: 0x0, symName: __ZNSt6vectorISt4pairIiiESaIS1_EE17_S_check_init_lenEmRKS2_, symObjAddr: 0x3AD0, symBinAddr: 0x1000043A0, symSize: 0x84 }
  - { offsetInCU: 0x16BED, offset: 0x16BED, size: 0x8, addend: 0x0, symName: __ZNSt12_Vector_baseISt4pairIiiESaIS1_EE13_M_deallocateEPS1_m, symObjAddr: 0x3A60, symBinAddr: 0x100004330, symSize: 0x58 }
  - { offsetInCU: 0x16BF5, offset: 0x16BF5, size: 0x8, addend: 0x0, symName: __ZNKSt16initializer_listISt4pairIiiEE4sizeEv, symObjAddr: 0x3AB8, symBinAddr: 0x100004388, symSize: 0x18 }
  - { offsetInCU: 0x16CE9, offset: 0x16CE9, size: 0x8, addend: 0x0, symName: __ZNSt12_Vector_baseISt4pairIiiESaIS1_EE12_Vector_implC1ERKS2_, symObjAddr: 0x3A14, symBinAddr: 0x1000042E4, symSize: 0x4C }
  - { offsetInCU: 0x16CF1, offset: 0x16CF1, size: 0x8, addend: 0x0, symName: __ZNSt12_Vector_baseISt4pairIiiESaIS1_EE13_M_deallocateEPS1_m, symObjAddr: 0x3A60, symBinAddr: 0x100004330, symSize: 0x58 }
  - { offsetInCU: 0x16D86, offset: 0x16D86, size: 0x8, addend: 0x0, symName: __ZSt8_DestroyIPP11Search_CellEvT_S3_, symObjAddr: 0x39EC, symBinAddr: 0x1000042BC, symSize: 0x28 }
  - { offsetInCU: 0x16D8E, offset: 0x16D8E, size: 0x8, addend: 0x0, symName: __ZNSt12_Vector_baseISt4pairIiiESaIS1_EE12_Vector_implC1ERKS2_, symObjAddr: 0x3A14, symBinAddr: 0x1000042E4, symSize: 0x4C }
  - { offsetInCU: 0x16F3D, offset: 0x16F3D, size: 0x8, addend: 0x0, symName: __ZSt10__pop_heapIN9__gnu_cxx17__normal_iteratorIPP11Search_CellSt6vectorIS3_SaIS3_EEEENS0_5__ops15_Iter_comp_iterI8CompareFEEEvT_SD_SD_RT0_, symObjAddr: 0x3958, symBinAddr: 0x100004228, symSize: 0x94 }
  - { offsetInCU: 0x16F45, offset: 0x16F45, size: 0x8, addend: 0x0, symName: __ZSt8_DestroyIPP11Search_CellEvT_S3_, symObjAddr: 0x39EC, symBinAddr: 0x1000042BC, symSize: 0x28 }
  - { offsetInCU: 0x16EED, offset: 0x16EED, size: 0x8, addend: 0x0, symName: __ZN9__gnu_cxx17__normal_iteratorIPP11Search_CellSt6vectorIS2_SaIS2_EEEmmEv, symObjAddr: 0x3930, symBinAddr: 0x100004200, symSize: 0x28 }
  - { offsetInCU: 0x16EF5, offset: 0x16EF5, size: 0x8, addend: 0x0, symName: __ZSt10__pop_heapIN9__gnu_cxx17__normal_iteratorIPP11Search_CellSt6vectorIS3_SaIS3_EEEENS0_5__ops15_Iter_comp_iterI8CompareFEEEvT_SD_SD_RT0_, symObjAddr: 0x3958, symBinAddr: 0x100004228, symSize: 0x94 }
  - { offsetInCU: 0x16FC4, offset: 0x16FC4, size: 0x8, addend: 0x0, symName: __ZN9__gnu_cxxmiIPP11Search_CellSt6vectorIS2_SaIS2_EEEENS_17__normal_iteratorIT_T0_E15difference_typeERKSA_SD_, symObjAddr: 0x38F0, symBinAddr: 0x1000041C0, symSize: 0x40 }
  - { offsetInCU: 0x16FCC, offset: 0x16FCC, size: 0x8, addend: 0x0, symName: __ZN9__gnu_cxx17__normal_iteratorIPP11Search_CellSt6vectorIS2_SaIS2_EEEmmEv, symObjAddr: 0x3930, symBinAddr: 0x100004200, symSize: 0x28 }
  - { offsetInCU: 0x1700C, offset: 0x1700C, size: 0x8, addend: 0x0, symName: __ZN9__gnu_cxx17__normal_iteratorIPP11Search_CellSt6vectorIS2_SaIS2_EEEC1ERKS3_, symObjAddr: 0x38C8, symBinAddr: 0x100004198, symSize: 0x28 }
  - { offsetInCU: 0x17014, offset: 0x17014, size: 0x8, addend: 0x0, symName: __ZN9__gnu_cxxmiIPP11Search_CellSt6vectorIS2_SaIS2_EEEENS_17__normal_iteratorIT_T0_E15difference_typeERKSA_SD_, symObjAddr: 0x38F0, symBinAddr: 0x1000041C0, symSize: 0x40 }
  - { offsetInCU: 0x16FF7, offset: 0x16FF7, size: 0x8, addend: 0x0, symName: __ZNK9__gnu_cxx17__normal_iteratorIPKP11Search_CellSt6vectorIS2_SaIS2_EEEdeEv, symObjAddr: 0x38B0, symBinAddr: 0x100004180, symSize: 0x18 }
  - { offsetInCU: 0x16FFF, offset: 0x16FFF, size: 0x8, addend: 0x0, symName: __ZN9__gnu_cxx17__normal_iteratorIPP11Search_CellSt6vectorIS2_SaIS2_EEEC1ERKS3_, symObjAddr: 0x38C8, symBinAddr: 0x100004198, symSize: 0x28 }
  - { offsetInCU: 0x170C3, offset: 0x170C3, size: 0x8, addend: 0x0, symName: __ZN9__gnu_cxxeqIPKP11Search_CellSt6vectorIS2_SaIS2_EEEEbRKNS_17__normal_iteratorIT_T0_EESD_, symObjAddr: 0x386C, symBinAddr: 0x10000413C, symSize: 0x44 }
  - { offsetInCU: 0x170CB, offset: 0x170CB, size: 0x8, addend: 0x0, symName: __ZNK9__gnu_cxx17__normal_iteratorIPKP11Search_CellSt6vectorIS2_SaIS2_EEEdeEv, symObjAddr: 0x38B0, symBinAddr: 0x100004180, symSize: 0x18 }
  - { offsetInCU: 0x17163, offset: 0x17163, size: 0x8, addend: 0x0, symName: __ZSt11__addressofINSt7__cxx1112basic_stringIcSt11char_traitsIcESaIcEEEEPT_RS6_, symObjAddr: 0x3858, symBinAddr: 0x100004128, symSize: 0x14 }
  - { offsetInCU: 0x1716B, offset: 0x1716B, size: 0x8, addend: 0x0, symName: __ZN9__gnu_cxxeqIPKP11Search_CellSt6vectorIS2_SaIS2_EEEEbRKNS_17__normal_iteratorIT_T0_EESD_, symObjAddr: 0x386C, symBinAddr: 0x10000413C, symSize: 0x44 }
  - { offsetInCU: 0x1712B, offset: 0x1712B, size: 0x8, addend: 0x0, symName: __ZNSt8_Rb_treeISt4pairIiiES0_IKS1_cESt10_Select1stIS3_ESt4lessIS1_ESaIS3_EE22_M_emplace_hint_uniqueIJRKSt21piecewise_construct_tSt5tupleIJOS1_EESE_IJEEEEESt17_Rb_tree_iteratorIS3_ESt23_Rb_tree_const_iteratorIS3_EDpOT_, symObjAddr: 0x3780, symBinAddr: 0x100004050, symSize: 0xD8 }
  - { offsetInCU: 0x17133, offset: 0x17133, size: 0x8, addend: 0x0, symName: __ZSt11__addressofINSt7__cxx1112basic_stringIcSt11char_traitsIcESaIcEEEEPT_RS6_, symObjAddr: 0x3858, symBinAddr: 0x100004128, symSize: 0x14 }
  - { offsetInCU: 0x17260, offset: 0x17260, size: 0x8, addend: 0x0, symName: __ZNSt23_Rb_tree_const_iteratorISt4pairIKS0_IiiEcEEC1ERKSt17_Rb_tree_iteratorIS3_E, symObjAddr: 0x3758, symBinAddr: 0x100004028, symSize: 0x28 }
  - { offsetInCU: 0x17268, offset: 0x17268, size: 0x8, addend: 0x0, symName: __ZNSt8_Rb_treeISt4pairIiiES0_IKS1_cESt10_Select1stIS3_ESt4lessIS1_ESaIS3_EE22_M_emplace_hint_uniqueIJRKSt21piecewise_construct_tSt5tupleIJOS1_EESE_IJEEEEESt17_Rb_tree_iteratorIS3_ESt23_Rb_tree_const_iteratorIS3_EDpOT_, symObjAddr: 0x3780, symBinAddr: 0x100004050, symSize: 0xD8 }
  - { offsetInCU: 0x172AE, offset: 0x172AE, size: 0x8, addend: 0x0, symName: __ZSt16forward_as_tupleIJSt4pairIiiEEESt5tupleIJDpOT_EES5_, symObjAddr: 0x3720, symBinAddr: 0x100003FF0, symSize: 0x38 }
  - { offsetInCU: 0x172B6, offset: 0x172B6, size: 0x8, addend: 0x0, symName: __ZNSt23_Rb_tree_const_iteratorISt4pairIKS0_IiiEcEEC1ERKSt17_Rb_tree_iteratorIS3_E, symObjAddr: 0x3758, symBinAddr: 0x100004028, symSize: 0x28 }
  - { offsetInCU: 0x172EF, offset: 0x172EF, size: 0x8, addend: 0x0, symName: __ZSt4moveIRSt4pairIiiEEONSt16remove_referenceIT_E4typeEOS4_, symObjAddr: 0x370C, symBinAddr: 0x100003FDC, symSize: 0x14 }
  - { offsetInCU: 0x172F7, offset: 0x172F7, size: 0x8, addend: 0x0, symName: __ZSt16forward_as_tupleIJSt4pairIiiEEESt5tupleIJDpOT_EES5_, symObjAddr: 0x3720, symBinAddr: 0x100003FF0, symSize: 0x38 }
  - { offsetInCU: 0x172E8, offset: 0x172E8, size: 0x8, addend: 0x0, symName: __ZNKSt4lessISt4pairIiiEEclERKS1_S4_, symObjAddr: 0x36E0, symBinAddr: 0x100003FB0, symSize: 0x2C }
  - { offsetInCU: 0x172F0, offset: 0x172F0, size: 0x8, addend: 0x0, symName: __ZSt4moveIRSt4pairIiiEEONSt16remove_referenceIT_E4typeEOS4_, symObjAddr: 0x370C, symBinAddr: 0x100003FDC, symSize: 0x14 }
  - { offsetInCU: 0x1733F, offset: 0x1733F, size: 0x8, addend: 0x0, symName: __ZNKSt17_Rb_tree_iteratorISt4pairIKS0_IiiEcEEdeEv, symObjAddr: 0x36C0, symBinAddr: 0x100003F90, symSize: 0x20 }
  - { offsetInCU: 0x17347, offset: 0x17347, size: 0x8, addend: 0x0, symName: __ZNKSt4lessISt4pairIiiEEclERKS1_S4_, symObjAddr: 0x36E0, symBinAddr: 0x100003FB0, symSize: 0x2C }
  - { offsetInCU: 0x1736E, offset: 0x1736E, size: 0x8, addend: 0x0, symName: __ZNKSt3mapISt4pairIiiEcSt4lessIS1_ESaIS0_IKS1_cEEE8key_compEv, symObjAddr: 0x3694, symBinAddr: 0x100003F64, symSize: 0x2C }
  - { offsetInCU: 0x17376, offset: 0x17376, size: 0x8, addend: 0x0, symName: __ZNKSt17_Rb_tree_iteratorISt4pairIKS0_IiiEcEEdeEv, symObjAddr: 0x36C0, symBinAddr: 0x100003F90, symSize: 0x20 }
  - { offsetInCU: 0x173E2, offset: 0x173E2, size: 0x8, addend: 0x0, symName: __ZSteqRKSt17_Rb_tree_iteratorISt4pairIKS0_IiiEcEES6_, symObjAddr: 0x3664, symBinAddr: 0x100003F34, symSize: 0x30 }
  - { offsetInCU: 0x173EA, offset: 0x173EA, size: 0x8, addend: 0x0, symName: __ZNKSt3mapISt4pairIiiEcSt4lessIS1_ESaIS0_IKS1_cEEE8key_compEv, symObjAddr: 0x3694, symBinAddr: 0x100003F64, symSize: 0x2C }
  - { offsetInCU: 0x173FA, offset: 0x173FA, size: 0x8, addend: 0x0, symName: __ZNSt3mapISt4pairIiiEcSt4lessIS1_ESaIS0_IKS1_cEEE3endEv, symObjAddr: 0x3648, symBinAddr: 0x100003F18, symSize: 0x1C }
  - { offsetInCU: 0x17402, offset: 0x17402, size: 0x8, addend: 0x0, symName: __ZSteqRKSt17_Rb_tree_iteratorISt4pairIKS0_IiiEcEES6_, symObjAddr: 0x3664, symBinAddr: 0x100003F34, symSize: 0x30 }
  - { offsetInCU: 0x17429, offset: 0x17429, size: 0x8, addend: 0x0, symName: __ZNSt3mapISt4pairIiiEcSt4lessIS1_ESaIS0_IKS1_cEEE11lower_boundERS4_, symObjAddr: 0x3624, symBinAddr: 0x100003EF4, symSize: 0x24 }
  - { offsetInCU: 0x17431, offset: 0x17431, size: 0x8, addend: 0x0, symName: __ZNSt3mapISt4pairIiiEcSt4lessIS1_ESaIS0_IKS1_cEEE3endEv, symObjAddr: 0x3648, symBinAddr: 0x100003F18, symSize: 0x1C }
  - { offsetInCU: 0x1746C, offset: 0x1746C, size: 0x8, addend: 0x0, symName: __ZNSt8_Rb_treeISt4pairIiiES0_IKS1_cESt10_Select1stIS3_ESt4lessIS1_ESaIS3_EE8_M_beginEv, symObjAddr: 0x3608, symBinAddr: 0x100003ED8, symSize: 0x1C }
  - { offsetInCU: 0x17474, offset: 0x17474, size: 0x8, addend: 0x0, symName: __ZNSt3mapISt4pairIiiEcSt4lessIS1_ESaIS0_IKS1_cEEE11lower_boundERS4_, symObjAddr: 0x3624, symBinAddr: 0x100003EF4, symSize: 0x24 }
  - { offsetInCU: 0x1749B, offset: 0x1749B, size: 0x8, addend: 0x0, symName: __ZNSt8_Rb_treeISt4pairIiiES0_IKS1_cESt10_Select1stIS3_ESt4lessIS1_ESaIS3_EE8_M_eraseEPSt13_Rb_tree_nodeIS3_E, symObjAddr: 0x35A4, symBinAddr: 0x100003E74, symSize: 0x64 }
  - { offsetInCU: 0x174A3, offset: 0x174A3, size: 0x8, addend: 0x0, symName: __ZNSt8_Rb_treeISt4pairIiiES0_IKS1_cESt10_Select1stIS3_ESt4lessIS1_ESaIS3_EE8_M_beginEv, symObjAddr: 0x3608, symBinAddr: 0x100003ED8, symSize: 0x1C }
  - { offsetInCU: 0x1752B, offset: 0x1752B, size: 0x8, addend: 0x0, symName: __ZNSt8_Rb_treeISt4pairIiiES0_IKS1_cESt10_Select1stIS3_ESt4lessIS1_ESaIS3_EE22_M_insert_range_uniqueIPKS3_EENSt9enable_ifIXsrSt7is_sameIS3_NSt15iterator_traitsIT_E10value_typeEE5valueEvE4typeESG_SG_, symObjAddr: 0x3524, symBinAddr: 0x100003DF4, symSize: 0x80 }
  - { offsetInCU: 0x17533, offset: 0x17533, size: 0x8, addend: 0x0, symName: __ZNSt8_Rb_treeISt4pairIiiES0_IKS1_cESt10_Select1stIS3_ESt4lessIS1_ESaIS3_EE8_M_eraseEPSt13_Rb_tree_nodeIS3_E, symObjAddr: 0x35A4, symBinAddr: 0x100003E74, symSize: 0x64 }
  - { offsetInCU: 0x175A3, offset: 0x175A3, size: 0x8, addend: 0x0, symName: __ZNKSt16initializer_listISt4pairIKS0_IiiEcEE3endEv, symObjAddr: 0x34DC, symBinAddr: 0x100003DAC, symSize: 0x48 }
  - { offsetInCU: 0x175AB, offset: 0x175AB, size: 0x8, addend: 0x0, symName: __ZNSt8_Rb_treeISt4pairIiiES0_IKS1_cESt10_Select1stIS3_ESt4lessIS1_ESaIS3_EE22_M_insert_range_uniqueIPKS3_EENSt9enable_ifIXsrSt7is_sameIS3_NSt15iterator_traitsIT_E10value_typeEE5valueEvE4typeESG_SG_, symObjAddr: 0x3524, symBinAddr: 0x100003DF4, symSize: 0x80 }
  - { offsetInCU: 0x175D2, offset: 0x175D2, size: 0x8, addend: 0x0, symName: __ZNKSt16initializer_listISt4pairIKS0_IiiEcEE5beginEv, symObjAddr: 0x34C4, symBinAddr: 0x100003D94, symSize: 0x18 }
  - { offsetInCU: 0x175DA, offset: 0x175DA, size: 0x8, addend: 0x0, symName: __ZNKSt16initializer_listISt4pairIKS0_IiiEcEE3endEv, symObjAddr: 0x34DC, symBinAddr: 0x100003DAC, symSize: 0x48 }
  - { offsetInCU: 0x17695, offset: 0x17695, size: 0x8, addend: 0x0, symName: __ZNSt8_Rb_treeISt4pairIiiES0_IKS1_cESt10_Select1stIS3_ESt4lessIS1_ESaIS3_EEC1ERKS7_RKS8_, symObjAddr: 0x3448, symBinAddr: 0x100003D18, symSize: 0x7C }
  - { offsetInCU: 0x1769D, offset: 0x1769D, size: 0x8, addend: 0x0, symName: __ZNKSt16initializer_listISt4pairIKS0_IiiEcEE5beginEv, symObjAddr: 0x34C4, symBinAddr: 0x100003D94, symSize: 0x18 }
  - { offsetInCU: 0x1779C, offset: 0x1779C, size: 0x8, addend: 0x0, symName: __ZNSt15__new_allocatorISt4pairIKS0_IiiEcEED2Ev, symObjAddr: 0x3434, symBinAddr: 0x100003D04, symSize: 0x14 }
  - { offsetInCU: 0x177A4, offset: 0x177A4, size: 0x8, addend: 0x0, symName: __ZNSt8_Rb_treeISt4pairIiiES0_IKS1_cESt10_Select1stIS3_ESt4lessIS1_ESaIS3_EEC1ERKS7_RKS8_, symObjAddr: 0x3448, symBinAddr: 0x100003D18, symSize: 0x7C }
  - { offsetInCU: 0x17879, offset: 0x17879, size: 0x8, addend: 0x0, symName: __ZSt9push_heapIN9__gnu_cxx17__normal_iteratorIPP11Search_CellSt6vectorIS3_SaIS3_EEEE8CompareFEvT_SA_T0_, symObjAddr: 0x339C, symBinAddr: 0x100003C6C, symSize: 0x98 }
  - { offsetInCU: 0x17881, offset: 0x17881, size: 0x8, addend: 0x0, symName: __ZNSt15__new_allocatorISt4pairIKS0_IiiEcEED2Ev, symObjAddr: 0x3434, symBinAddr: 0x100003D04, symSize: 0x14 }
  - { offsetInCU: 0x178B6, offset: 0x178B6, size: 0x8, addend: 0x0, symName: __ZSt7forwardIRiEOT_RNSt16remove_referenceIS1_E4typeE, symObjAddr: 0x3388, symBinAddr: 0x100003C58, symSize: 0x14 }
  - { offsetInCU: 0x178BE, offset: 0x178BE, size: 0x8, addend: 0x0, symName: __ZSt9push_heapIN9__gnu_cxx17__normal_iteratorIPP11Search_CellSt6vectorIS3_SaIS3_EEEE8CompareFEvT_SA_T0_, symObjAddr: 0x339C, symBinAddr: 0x100003C6C, symSize: 0x98 }
  - { offsetInCU: 0x178C3, offset: 0x178C3, size: 0x8, addend: 0x0, symName: __ZNSt6vectorINSt7__cxx1112basic_stringIcSt11char_traitsIcESaIcEEESaIS5_EE17_M_realloc_insertIJRKS5_EEEvN9__gnu_cxx17__normal_iteratorIPS5_S7_EEDpOT_, symObjAddr: 0x30F8, symBinAddr: 0x1000039C8, symSize: 0x290 }
  - { offsetInCU: 0x178CB, offset: 0x178CB, size: 0x8, addend: 0x0, symName: __ZSt7forwardIRiEOT_RNSt16remove_referenceIS1_E4typeE, symObjAddr: 0x3388, symBinAddr: 0x100003C58, symSize: 0x14 }
  - { offsetInCU: 0x17ACB, offset: 0x17ACB, size: 0x8, addend: 0x0, symName: __ZNSt6vectorINSt7__cxx1112basic_stringIcSt11char_traitsIcESaIcEEESaIS5_EE3endEv, symObjAddr: 0x30D0, symBinAddr: 0x1000039A0, symSize: 0x28 }
  - { offsetInCU: 0x17AD3, offset: 0x17AD3, size: 0x8, addend: 0x0, symName: __ZNSt6vectorINSt7__cxx1112basic_stringIcSt11char_traitsIcESaIcEEESaIS5_EE17_M_realloc_insertIJRKS5_EEEvN9__gnu_cxx17__normal_iteratorIPS5_S7_EEDpOT_, symObjAddr: 0x30F8, symBinAddr: 0x1000039C8, symSize: 0x290 }
  - { offsetInCU: 0x17BA7, offset: 0x17BA7, size: 0x8, addend: 0x0, symName: __ZNSt12_Vector_baseINSt7__cxx1112basic_stringIcSt11char_traitsIcESaIcEEESaIS5_EE19_M_get_Tp_allocatorEv, symObjAddr: 0x30BC, symBinAddr: 0x10000398C, symSize: 0x14 }
  - { offsetInCU: 0x17BAF, offset: 0x17BAF, size: 0x8, addend: 0x0, symName: __ZNSt6vectorINSt7__cxx1112basic_stringIcSt11char_traitsIcESaIcEEESaIS5_EE3endEv, symObjAddr: 0x30D0, symBinAddr: 0x1000039A0, symSize: 0x28 }
  - { offsetInCU: 0x17BD6, offset: 0x17BD6, size: 0x8, addend: 0x0, symName: __ZNSt12_Vector_baseINSt7__cxx1112basic_stringIcSt11char_traitsIcESaIcEEESaIS5_EE13_M_deallocateEPS5_m, symObjAddr: 0x3064, symBinAddr: 0x100003934, symSize: 0x58 }
  - { offsetInCU: 0x17BDE, offset: 0x17BDE, size: 0x8, addend: 0x0, symName: __ZNSt12_Vector_baseINSt7__cxx1112basic_stringIcSt11char_traitsIcESaIcEEESaIS5_EE19_M_get_Tp_allocatorEv, symObjAddr: 0x30BC, symBinAddr: 0x10000398C, symSize: 0x14 }
  - { offsetInCU: 0x17CE3, offset: 0x17CE3, size: 0x8, addend: 0x0, symName: __ZNSt15__new_allocatorINSt7__cxx1112basic_stringIcSt11char_traitsIcESaIcEEEED2Ev, symObjAddr: 0x3050, symBinAddr: 0x100003920, symSize: 0x14 }
  - { offsetInCU: 0x17CEB, offset: 0x17CEB, size: 0x8, addend: 0x0, symName: __ZNSt12_Vector_baseINSt7__cxx1112basic_stringIcSt11char_traitsIcESaIcEEESaIS5_EE13_M_deallocateEPS5_m, symObjAddr: 0x3064, symBinAddr: 0x100003934, symSize: 0x58 }
  - { offsetInCU: 0x17D41, offset: 0x17D41, size: 0x8, addend: 0x0, symName: __ZNSt12_Vector_baseINSt7__cxx1112basic_stringIcSt11char_traitsIcESaIcEEESaIS5_EE17_Vector_impl_dataC2Ev, symObjAddr: 0x3024, symBinAddr: 0x1000038F4, symSize: 0x2C }
  - { offsetInCU: 0x17D49, offset: 0x17D49, size: 0x8, addend: 0x0, symName: __ZNSt15__new_allocatorINSt7__cxx1112basic_stringIcSt11char_traitsIcESaIcEEEED2Ev, symObjAddr: 0x3050, symBinAddr: 0x100003920, symSize: 0x14 }
  - { offsetInCU: 0x17D62, offset: 0x17D62, size: 0x8, addend: 0x0, symName: __ZNSt6vectorIP11Search_CellSaIS1_EE17_M_realloc_insertIJRKS1_EEEvN9__gnu_cxx17__normal_iteratorIPS1_S3_EEDpOT_, symObjAddr: 0x2E64, symBinAddr: 0x100003734, symSize: 0x1C0 }
  - { offsetInCU: 0x17D6A, offset: 0x17D6A, size: 0x8, addend: 0x0, symName: __ZNSt12_Vector_baseINSt7__cxx1112basic_stringIcSt11char_traitsIcESaIcEEESaIS5_EE17_Vector_impl_dataC2Ev, symObjAddr: 0x3024, symBinAddr: 0x1000038F4, symSize: 0x2C }
  - { offsetInCU: 0x18020, offset: 0x18020, size: 0x8, addend: 0x0, symName: __ZSt22__uninitialized_copy_aIN9__gnu_cxx17__normal_iteratorIPKP11Search_CellSt6vectorIS3_SaIS3_EEEEPS3_S3_ET0_T_SC_SB_RSaIT1_E, symObjAddr: 0x2E34, symBinAddr: 0x100003704, symSize: 0x30 }
  - { offsetInCU: 0x18028, offset: 0x18028, size: 0x8, addend: 0x0, symName: __ZNSt6vectorIP11Search_CellSaIS1_EE17_M_realloc_insertIJRKS1_EEEvN9__gnu_cxx17__normal_iteratorIPS1_S3_EEDpOT_, symObjAddr: 0x2E64, symBinAddr: 0x100003734, symSize: 0x1C0 }
  - { offsetInCU: 0x17FB3, offset: 0x17FB3, size: 0x8, addend: 0x0, symName: __ZNKSt6vectorIP11Search_CellSaIS1_EE3endEv, symObjAddr: 0x2E0C, symBinAddr: 0x1000036DC, symSize: 0x28 }
  - { offsetInCU: 0x17FBB, offset: 0x17FBB, size: 0x8, addend: 0x0, symName: __ZSt22__uninitialized_copy_aIN9__gnu_cxx17__normal_iteratorIPKP11Search_CellSt6vectorIS3_SaIS3_EEEEPS3_S3_ET0_T_SC_SB_RSaIT1_E, symObjAddr: 0x2E34, symBinAddr: 0x100003704, symSize: 0x30 }
  - { offsetInCU: 0x17FE2, offset: 0x17FE2, size: 0x8, addend: 0x0, symName: __ZNKSt6vectorIP11Search_CellSaIS1_EE5beginEv, symObjAddr: 0x2DE8, symBinAddr: 0x1000036B8, symSize: 0x24 }
  - { offsetInCU: 0x17FEA, offset: 0x17FEA, size: 0x8, addend: 0x0, symName: __ZNKSt6vectorIP11Search_CellSaIS1_EE3endEv, symObjAddr: 0x2E0C, symBinAddr: 0x1000036DC, symSize: 0x28 }
  - { offsetInCU: 0x18080, offset: 0x18080, size: 0x8, addend: 0x0, symName: __ZNSt12_Vector_baseIP11Search_CellSaIS1_EEC2EmRKS2_, symObjAddr: 0x2D94, symBinAddr: 0x100003664, symSize: 0x54 }
  - { offsetInCU: 0x18088, offset: 0x18088, size: 0x8, addend: 0x0, symName: __ZNKSt6vectorIP11Search_CellSaIS1_EE5beginEv, symObjAddr: 0x2DE8, symBinAddr: 0x1000036B8, symSize: 0x24 }
  - { offsetInCU: 0x180AD, offset: 0x180AD, size: 0x8, addend: 0x0, symName: __ZNKSt12_Vector_baseIP11Search_CellSaIS1_EE19_M_get_Tp_allocatorEv, symObjAddr: 0x2D80, symBinAddr: 0x100003650, symSize: 0x14 }
  - { offsetInCU: 0x180B5, offset: 0x180B5, size: 0x8, addend: 0x0, symName: __ZNSt12_Vector_baseIP11Search_CellSaIS1_EEC2EmRKS2_, symObjAddr: 0x2D94, symBinAddr: 0x100003664, symSize: 0x54 }
  - { offsetInCU: 0x18131, offset: 0x18131, size: 0x8, addend: 0x0, symName: __ZNSt12_Vector_baseISt4pairIiiESaIS1_EE19_M_get_Tp_allocatorEv, symObjAddr: 0x2D6C, symBinAddr: 0x10000363C, symSize: 0x14 }
  - { offsetInCU: 0x18139, offset: 0x18139, size: 0x8, addend: 0x0, symName: __ZNKSt12_Vector_baseIP11Search_CellSaIS1_EE19_M_get_Tp_allocatorEv, symObjAddr: 0x2D80, symBinAddr: 0x100003650, symSize: 0x14 }
  - { offsetInCU: 0x18160, offset: 0x18160, size: 0x8, addend: 0x0, symName: __ZNSt6vectorISt4pairIiiESaIS1_EE19_M_range_initializeIPKS1_EEvT_S7_St20forward_iterator_tag, symObjAddr: 0x2C88, symBinAddr: 0x100003558, symSize: 0xE4 }
  - { offsetInCU: 0x18168, offset: 0x18168, size: 0x8, addend: 0x0, symName: __ZNSt12_Vector_baseISt4pairIiiESaIS1_EE19_M_get_Tp_allocatorEv, symObjAddr: 0x2D6C, symBinAddr: 0x10000363C, symSize: 0x14 }
  - { offsetInCU: 0x182BD, offset: 0x182BD, size: 0x8, addend: 0x0, symName: __ZNKSt16initializer_listISt4pairIiiEE3endEv, symObjAddr: 0x2C50, symBinAddr: 0x100003520, symSize: 0x38 }
  - { offsetInCU: 0x182C5, offset: 0x182C5, size: 0x8, addend: 0x0, symName: __ZNSt6vectorISt4pairIiiESaIS1_EE19_M_range_initializeIPKS1_EEvT_S7_St20forward_iterator_tag, symObjAddr: 0x2C88, symBinAddr: 0x100003558, symSize: 0xE4 }
  - { offsetInCU: 0x182EC, offset: 0x182EC, size: 0x8, addend: 0x0, symName: __ZNKSt16initializer_listISt4pairIiiEE5beginEv, symObjAddr: 0x2C38, symBinAddr: 0x100003508, symSize: 0x18 }
  - { offsetInCU: 0x182F4, offset: 0x182F4, size: 0x8, addend: 0x0, symName: __ZNKSt16initializer_listISt4pairIiiEE3endEv, symObjAddr: 0x2C50, symBinAddr: 0x100003520, symSize: 0x38 }
  - { offsetInCU: 0x1836E, offset: 0x1836E, size: 0x8, addend: 0x0, symName: __ZNSt12_Vector_baseISt4pairIiiESaIS1_EED2Ev, symObjAddr: 0x2BE8, symBinAddr: 0x1000034B8, symSize: 0x50 }
  - { offsetInCU: 0x18376, offset: 0x18376, size: 0x8, addend: 0x0, symName: __ZNKSt16initializer_listISt4pairIiiEE5beginEv, symObjAddr: 0x2C38, symBinAddr: 0x100003508, symSize: 0x18 }
  - { offsetInCU: 0x183CA, offset: 0x183CA, size: 0x8, addend: 0x0, symName: __ZNSt12_Vector_baseISt4pairIiiESaIS1_EEC2ERKS2_, symObjAddr: 0x2BC0, symBinAddr: 0x100003490, symSize: 0x28 }
  - { offsetInCU: 0x183D2, offset: 0x183D2, size: 0x8, addend: 0x0, symName: __ZNSt12_Vector_baseISt4pairIiiESaIS1_EED2Ev, symObjAddr: 0x2BE8, symBinAddr: 0x1000034B8, symSize: 0x50 }
  - { offsetInCU: 0x18439, offset: 0x18439, size: 0x8, addend: 0x0, symName: __ZNSt12_Vector_baseISt4pairIiiESaIS1_EE12_Vector_implD1Ev, symObjAddr: 0x2B94, symBinAddr: 0x100003464, symSize: 0x2C }
  - { offsetInCU: 0x18441, offset: 0x18441, size: 0x8, addend: 0x0, symName: __ZNSt12_Vector_baseISt4pairIiiESaIS1_EEC2ERKS2_, symObjAddr: 0x2BC0, symBinAddr: 0x100003490, symSize: 0x28 }
  - { offsetInCU: 0x184A2, offset: 0x184A2, size: 0x8, addend: 0x0, symName: __ZNSt15__new_allocatorISt4pairIiiEED2Ev, symObjAddr: 0x2B80, symBinAddr: 0x100003450, symSize: 0x14 }
  - { offsetInCU: 0x184AA, offset: 0x184AA, size: 0x8, addend: 0x0, symName: __ZNSt12_Vector_baseISt4pairIiiESaIS1_EE12_Vector_implD1Ev, symObjAddr: 0x2B94, symBinAddr: 0x100003464, symSize: 0x2C }
  - { offsetInCU: 0x18516, offset: 0x18516, size: 0x8, addend: 0x0, symName: __ZNSt12_Vector_baseIP11Search_CellSaIS1_EE19_M_get_Tp_allocatorEv, symObjAddr: 0x2B6C, symBinAddr: 0x10000343C, symSize: 0x14 }
  - { offsetInCU: 0x1851E, offset: 0x1851E, size: 0x8, addend: 0x0, symName: __ZNSt15__new_allocatorISt4pairIiiEED2Ev, symObjAddr: 0x2B80, symBinAddr: 0x100003450, symSize: 0x14 }
  - { offsetInCU: 0x18545, offset: 0x18545, size: 0x8, addend: 0x0, symName: __ZNSt12_Vector_baseIP11Search_CellSaIS1_EE13_M_deallocateEPS1_m, symObjAddr: 0x2B14, symBinAddr: 0x1000033E4, symSize: 0x58 }
  - { offsetInCU: 0x1854D, offset: 0x1854D, size: 0x8, addend: 0x0, symName: __ZNSt12_Vector_baseIP11Search_CellSaIS1_EE19_M_get_Tp_allocatorEv, symObjAddr: 0x2B6C, symBinAddr: 0x10000343C, symSize: 0x14 }
  - { offsetInCU: 0x1862C, offset: 0x1862C, size: 0x8, addend: 0x0, symName: __ZNSt15__new_allocatorIP11Search_CellED2Ev, symObjAddr: 0x2B00, symBinAddr: 0x1000033D0, symSize: 0x14 }
  - { offsetInCU: 0x18634, offset: 0x18634, size: 0x8, addend: 0x0, symName: __ZNSt12_Vector_baseIP11Search_CellSaIS1_EE13_M_deallocateEPS1_m, symObjAddr: 0x2B14, symBinAddr: 0x1000033E4, symSize: 0x58 }
  - { offsetInCU: 0x1868A, offset: 0x1868A, size: 0x8, addend: 0x0, symName: __ZNSt12_Vector_baseIP11Search_CellSaIS1_EE17_Vector_impl_dataC2Ev, symObjAddr: 0x2AD4, symBinAddr: 0x1000033A4, symSize: 0x2C }
  - { offsetInCU: 0x18692, offset: 0x18692, size: 0x8, addend: 0x0, symName: __ZNSt15__new_allocatorIP11Search_CellED2Ev, symObjAddr: 0x2B00, symBinAddr: 0x1000033D0, symSize: 0x14 }
  - { offsetInCU: 0x1868F, offset: 0x1868F, size: 0x8, addend: 0x0, symName: __ZNSt6vectorIP11Search_CellSaIS1_EE8pop_backEv, symObjAddr: 0x2A80, symBinAddr: 0x100003350, symSize: 0x54 }
  - { offsetInCU: 0x18697, offset: 0x18697, size: 0x8, addend: 0x0, symName: __ZNSt12_Vector_baseIP11Search_CellSaIS1_EE17_Vector_impl_dataC2Ev, symObjAddr: 0x2AD4, symBinAddr: 0x1000033A4, symSize: 0x2C }
  - { offsetInCU: 0x187E7, offset: 0x187E7, size: 0x8, addend: 0x0, symName: __ZSt8pop_heapIN9__gnu_cxx17__normal_iteratorIPP11Search_CellSt6vectorIS3_SaIS3_EEEE8CompareFEvT_SA_T0_, symObjAddr: 0x2A1C, symBinAddr: 0x1000032EC, symSize: 0x64 }
  - { offsetInCU: 0x187EF, offset: 0x187EF, size: 0x8, addend: 0x0, symName: __ZNSt6vectorIP11Search_CellSaIS1_EE8pop_backEv, symObjAddr: 0x2A80, symBinAddr: 0x100003350, symSize: 0x54 }
  - { offsetInCU: 0x1880F, offset: 0x1880F, size: 0x8, addend: 0x0, symName: __ZSt4moveIR8CompareFEONSt16remove_referenceIT_E4typeEOS3_, symObjAddr: 0x2A08, symBinAddr: 0x1000032D8, symSize: 0x14 }
  - { offsetInCU: 0x18817, offset: 0x18817, size: 0x8, addend: 0x0, symName: __ZSt8pop_heapIN9__gnu_cxx17__normal_iteratorIPP11Search_CellSt6vectorIS3_SaIS3_EEEE8CompareFEvT_SA_T0_, symObjAddr: 0x2A1C, symBinAddr: 0x1000032EC, symSize: 0x64 }
  - { offsetInCU: 0x1881F, offset: 0x1881F, size: 0x8, addend: 0x0, symName: __ZNSt6vectorIP11Search_CellSaIS1_EE3endEv, symObjAddr: 0x29E0, symBinAddr: 0x1000032B0, symSize: 0x28 }
  - { offsetInCU: 0x18827, offset: 0x18827, size: 0x8, addend: 0x0, symName: __ZSt4moveIR8CompareFEONSt16remove_referenceIT_E4typeEOS3_, symObjAddr: 0x2A08, symBinAddr: 0x1000032D8, symSize: 0x14 }
  - { offsetInCU: 0x1884E, offset: 0x1884E, size: 0x8, addend: 0x0, symName: __ZNSt6vectorIP11Search_CellSaIS1_EE5beginEv, symObjAddr: 0x29BC, symBinAddr: 0x10000328C, symSize: 0x24 }
  - { offsetInCU: 0x18856, offset: 0x18856, size: 0x8, addend: 0x0, symName: __ZNSt6vectorIP11Search_CellSaIS1_EE3endEv, symObjAddr: 0x29E0, symBinAddr: 0x1000032B0, symSize: 0x28 }
  - { offsetInCU: 0x1887D, offset: 0x1887D, size: 0x8, addend: 0x0, symName: __ZNKSt6vectorIP11Search_CellSaIS1_EE5frontEv, symObjAddr: 0x2994, symBinAddr: 0x100003264, symSize: 0x28 }
  - { offsetInCU: 0x18885, offset: 0x18885, size: 0x8, addend: 0x0, symName: __ZNSt6vectorIP11Search_CellSaIS1_EE5beginEv, symObjAddr: 0x29BC, symBinAddr: 0x10000328C, symSize: 0x24 }
  - { offsetInCU: 0x188AC, offset: 0x188AC, size: 0x8, addend: 0x0, symName: __ZNKSt6vectorIP11Search_CellSaIS1_EE5emptyEv, symObjAddr: 0x2958, symBinAddr: 0x100003228, symSize: 0x3C }
  - { offsetInCU: 0x188B4, offset: 0x188B4, size: 0x8, addend: 0x0, symName: __ZNKSt6vectorIP11Search_CellSaIS1_EE5frontEv, symObjAddr: 0x2994, symBinAddr: 0x100003264, symSize: 0x28 }
  - { offsetInCU: 0x1896C, offset: 0x1896C, size: 0x8, addend: 0x0, symName: __ZSt4moveIRNSt7__cxx1112basic_stringIcSt11char_traitsIcESaIcEEEEONSt16remove_referenceIT_E4typeEOS8_, symObjAddr: 0x2944, symBinAddr: 0x100003214, symSize: 0x14 }
  - { offsetInCU: 0x18974, offset: 0x18974, size: 0x8, addend: 0x0, symName: __ZNKSt6vectorIP11Search_CellSaIS1_EE5emptyEv, symObjAddr: 0x2958, symBinAddr: 0x100003228, symSize: 0x3C }
  - { offsetInCU: 0x1892F, offset: 0x1892F, size: 0x8, addend: 0x0, symName: __ZNSt7__cxx1112basic_stringIcSt11char_traitsIcESaIcEE12_M_constructIPKcEEvT_S8_St20forward_iterator_tag, symObjAddr: 0x285C, symBinAddr: 0x10000312C, symSize: 0xE8 }
  - { offsetInCU: 0x18937, offset: 0x18937, size: 0x8, addend: 0x0, symName: __ZSt4moveIRNSt7__cxx1112basic_stringIcSt11char_traitsIcESaIcEEEEONSt16remove_referenceIT_E4typeEOS8_, symObjAddr: 0x2944, symBinAddr: 0x100003214, symSize: 0x14 }
  - { offsetInCU: 0x18AE8, offset: 0x18AE8, size: 0x8, addend: 0x0, symName: __ZZNSt7__cxx1112basic_stringIcSt11char_traitsIcESaIcEE12_M_constructIPKcEEvT_S8_St20forward_iterator_tagEN6_GuardC1EPS4_, symObjAddr: 0x2804, symBinAddr: 0x1000030D4, symSize: 0x24 }
  - { offsetInCU: 0x18AF0, offset: 0x18AF0, size: 0x8, addend: 0x0, symName: __ZZNSt7__cxx1112basic_stringIcSt11char_traitsIcESaIcEE12_M_constructIPKcEEvT_S8_St20forward_iterator_tagEN6_GuardD1Ev, symObjAddr: 0x2828, symBinAddr: 0x1000030F8, symSize: 0x34 }
  - { offsetInCU: 0x18B20, offset: 0x18B20, size: 0x8, addend: 0x0, symName: __ZZNSt7__cxx1112basic_stringIcSt11char_traitsIcESaIcEE12_M_constructIPKcEEvT_S8_St20forward_iterator_tagEN6_GuardD1Ev, symObjAddr: 0x2828, symBinAddr: 0x1000030F8, symSize: 0x34 }
  - { offsetInCU: 0x18B28, offset: 0x18B28, size: 0x8, addend: 0x0, symName: __ZNSt7__cxx1112basic_stringIcSt11char_traitsIcESaIcEE12_M_constructIPKcEEvT_S8_St20forward_iterator_tag, symObjAddr: 0x285C, symBinAddr: 0x10000312C, symSize: 0xE8 }
  - { offsetInCU: 0x18BEA, offset: 0x18BEA, size: 0x8, addend: 0x0, symName: __ZNSt15__new_allocatorIcED2Ev, symObjAddr: 0x27F0, symBinAddr: 0x1000030C0, symSize: 0x14 }
  - { offsetInCU: 0x18BF2, offset: 0x18BF2, size: 0x8, addend: 0x0, symName: __ZZNSt7__cxx1112basic_stringIcSt11char_traitsIcESaIcEE12_M_constructIPKcEEvT_S8_St20forward_iterator_tagEN6_GuardC1EPS4_, symObjAddr: 0x2804, symBinAddr: 0x1000030D4, symSize: 0x24 }
  - { offsetInCU: 0x18C13, offset: 0x18C13, size: 0x8, addend: 0x0, symName: __ZN9__gnu_cxx11char_traitsIcE2eqERKcS3_, symObjAddr: 0x27C0, symBinAddr: 0x100003090, symSize: 0x30 }
  - { offsetInCU: 0x18C1B, offset: 0x18C1B, size: 0x8, addend: 0x0, symName: __ZNSt15__new_allocatorIcED2Ev, symObjAddr: 0x27F0, symBinAddr: 0x1000030C0, symSize: 0x14 }
  - { offsetInCU: 0x18CAF, offset: 0x18CAF, size: 0x8, addend: 0x0, symName: __ZStplIcSt11char_traitsIcESaIcEENSt7__cxx1112basic_stringIT_T0_T1_EEOS8_PKS5_, symObjAddr: 0x277C, symBinAddr: 0x10000304C, symSize: 0x44 }
  - { offsetInCU: 0x18CB7, offset: 0x18CB7, size: 0x8, addend: 0x0, symName: __ZN9__gnu_cxx11char_traitsIcE2eqERKcS3_, symObjAddr: 0x27C0, symBinAddr: 0x100003090, symSize: 0x30 }
  - { offsetInCU: 0x18D29, offset: 0x18D29, size: 0x8, addend: 0x0, symName: __ZStplIcSt11char_traitsIcESaIcEENSt7__cxx1112basic_stringIT_T0_T1_EERKS8_OS8_, symObjAddr: 0x2734, symBinAddr: 0x100003004, symSize: 0x48 }
  - { offsetInCU: 0x18D31, offset: 0x18D31, size: 0x8, addend: 0x0, symName: __ZStplIcSt11char_traitsIcESaIcEENSt7__cxx1112basic_stringIT_T0_T1_EEOS8_PKS5_, symObjAddr: 0x277C, symBinAddr: 0x10000304C, symSize: 0x44 }
  - { offsetInCU: 0x18DE0, offset: 0x18DE0, size: 0x8, addend: 0x0, symName: __ZNSt7__cxx1112basic_stringIcSt11char_traitsIcESaIcEEC1IS3_EEPKcRKS3_, symObjAddr: 0x2698, symBinAddr: 0x100002F68, symSize: 0x9C }
  - { offsetInCU: 0x18DE8, offset: 0x18DE8, size: 0x8, addend: 0x0, symName: __ZStplIcSt11char_traitsIcESaIcEENSt7__cxx1112basic_stringIT_T0_T1_EERKS8_OS8_, symObjAddr: 0x2734, symBinAddr: 0x100003004, symSize: 0x48 }
  - { offsetInCU: 0x18E7F, offset: 0x18E7F, size: 0x8, addend: 0x0, symName: __ZStplIcSt11char_traitsIcESaIcEENSt7__cxx1112basic_stringIT_T0_T1_EEOS8_RKS8_, symObjAddr: 0x2654, symBinAddr: 0x100002F24, symSize: 0x44 }
  - { offsetInCU: 0x18E87, offset: 0x18E87, size: 0x8, addend: 0x0, symName: __ZNSt7__cxx1112basic_stringIcSt11char_traitsIcESaIcEEC1IS3_EEPKcRKS3_, symObjAddr: 0x2698, symBinAddr: 0x100002F68, symSize: 0x9C }
  - { offsetInCU: 0x18EA1, offset: 0x18EA1, size: 0x8, addend: 0x0, symName: __ZNSt3mapISt4pairIiiEcSt4lessIS1_ESaIS0_IKS1_cEEEixEOS1_, symObjAddr: 0x2550, symBinAddr: 0x100002E20, symSize: 0x104 }
  - { offsetInCU: 0x18EA9, offset: 0x18EA9, size: 0x8, addend: 0x0, symName: __ZStplIcSt11char_traitsIcESaIcEENSt7__cxx1112basic_stringIT_T0_T1_EEOS8_RKS8_, symObjAddr: 0x2654, symBinAddr: 0x100002F24, symSize: 0x44 }
  - { offsetInCU: 0x18F6F, offset: 0x18F6F, size: 0x8, addend: 0x0, symName: __ZNSt8_Rb_treeISt4pairIiiES0_IKS1_cESt10_Select1stIS3_ESt4lessIS1_ESaIS3_EED1Ev, symObjAddr: 0x251C, symBinAddr: 0x100002DEC, symSize: 0x34 }
  - { offsetInCU: 0x18F77, offset: 0x18F77, size: 0x8, addend: 0x0, symName: __ZNSt3mapISt4pairIiiEcSt4lessIS1_ESaIS0_IKS1_cEEEixEOS1_, symObjAddr: 0x2550, symBinAddr: 0x100002E20, symSize: 0x104 }
  - { offsetInCU: 0x18FE1, offset: 0x18FE1, size: 0x8, addend: 0x0, symName: __ZNSt8_Rb_treeISt4pairIiiES0_IKS1_cESt10_Select1stIS3_ESt4lessIS1_ESaIS3_EE13_Rb_tree_implIS7_Lb1EED1Ev, symObjAddr: 0x24F0, symBinAddr: 0x100002DC0, symSize: 0x2C }
  - { offsetInCU: 0x18FE9, offset: 0x18FE9, size: 0x8, addend: 0x0, symName: __ZNSt8_Rb_treeISt4pairIiiES0_IKS1_cESt10_Select1stIS3_ESt4lessIS1_ESaIS3_EED1Ev, symObjAddr: 0x251C, symBinAddr: 0x100002DEC, symSize: 0x34 }
  - { offsetInCU: 0x1906E, offset: 0x1906E, size: 0x8, addend: 0x0, symName: __ZNSt3mapISt4pairIiiEcSt4lessIS1_ESaIS0_IKS1_cEEEC1ESt16initializer_listIS5_ERKS3_RKS6_, symObjAddr: 0x242C, symBinAddr: 0x100002CFC, symSize: 0xC4 }
  - { offsetInCU: 0x19076, offset: 0x19076, size: 0x8, addend: 0x0, symName: __ZNSt8_Rb_treeISt4pairIiiES0_IKS1_cESt10_Select1stIS3_ESt4lessIS1_ESaIS3_EE13_Rb_tree_implIS7_Lb1EED1Ev, symObjAddr: 0x24F0, symBinAddr: 0x100002DC0, symSize: 0x2C }
  - { offsetInCU: 0x19150, offset: 0x19150, size: 0x8, addend: 0x0, symName: __ZNSt14priority_queueIP11Search_CellSt6vectorIS1_SaIS1_EE8CompareFE4pushERKS1_, symObjAddr: 0x23D8, symBinAddr: 0x100002CA8, symSize: 0x54 }
  - { offsetInCU: 0x19158, offset: 0x19158, size: 0x8, addend: 0x0, symName: __ZNSt3mapISt4pairIiiEcSt4lessIS1_ESaIS0_IKS1_cEEEC1ESt16initializer_listIS5_ERKS3_RKS6_, symObjAddr: 0x242C, symBinAddr: 0x100002CFC, symSize: 0xC4 }
  - { offsetInCU: 0x1920E, offset: 0x1920E, size: 0x8, addend: 0x0, symName: __ZNSt14priority_queueIP11Search_CellSt6vectorIS1_SaIS1_EE8CompareFEC1IS4_vEEv, symObjAddr: 0x23AC, symBinAddr: 0x100002C7C, symSize: 0x2C }
  - { offsetInCU: 0x19216, offset: 0x19216, size: 0x8, addend: 0x0, symName: __ZNSt14priority_queueIP11Search_CellSt6vectorIS1_SaIS1_EE8CompareFE4pushERKS1_, symObjAddr: 0x23D8, symBinAddr: 0x100002CA8, symSize: 0x54 }
  - { offsetInCU: 0x19202, offset: 0x19202, size: 0x8, addend: 0x0, symName: __ZNSt4pairIiiEaSEOS0_, symObjAddr: 0x2364, symBinAddr: 0x100002C34, symSize: 0x48 }
  - { offsetInCU: 0x1920A, offset: 0x1920A, size: 0x8, addend: 0x0, symName: __ZNSt14priority_queueIP11Search_CellSt6vectorIS1_SaIS1_EE8CompareFEC1IS4_vEEv, symObjAddr: 0x23AC, symBinAddr: 0x100002C7C, symSize: 0x2C }
  - { offsetInCU: 0x192BE, offset: 0x192BE, size: 0x8, addend: 0x0, symName: __ZNSt4pairIiiEC1IRiS2_Lb1EEEOT_OT0_, symObjAddr: 0x231C, symBinAddr: 0x100002BEC, symSize: 0x48 }
  - { offsetInCU: 0x192C6, offset: 0x192C6, size: 0x8, addend: 0x0, symName: __ZNSt4pairIiiEaSEOS0_, symObjAddr: 0x2364, symBinAddr: 0x100002C34, symSize: 0x48 }
  - { offsetInCU: 0x192FA, offset: 0x192FA, size: 0x8, addend: 0x0, symName: __ZNSt6vectorINSt7__cxx1112basic_stringIcSt11char_traitsIcESaIcEEESaIS5_EEixEm, symObjAddr: 0x22F4, symBinAddr: 0x100002BC4, symSize: 0x28 }
  - { offsetInCU: 0x19302, offset: 0x19302, size: 0x8, addend: 0x0, symName: __ZNSt4pairIiiEC1IRiS2_Lb1EEEOT_OT0_, symObjAddr: 0x231C, symBinAddr: 0x100002BEC, symSize: 0x48 }
  - { offsetInCU: 0x1933D, offset: 0x1933D, size: 0x8, addend: 0x0, symName: __ZNSt6vectorINSt7__cxx1112basic_stringIcSt11char_traitsIcESaIcEEESaIS5_EE9push_backERKS5_, symObjAddr: 0x21EC, symBinAddr: 0x100002ABC, symSize: 0x108 }
  - { offsetInCU: 0x19345, offset: 0x19345, size: 0x8, addend: 0x0, symName: __ZNSt6vectorINSt7__cxx1112basic_stringIcSt11char_traitsIcESaIcEEESaIS5_EEixEm, symObjAddr: 0x22F4, symBinAddr: 0x100002BC4, symSize: 0x28 }
  - { offsetInCU: 0x19471, offset: 0x19471, size: 0x8, addend: 0x0, symName: __ZNSt6vectorINSt7__cxx1112basic_stringIcSt11char_traitsIcESaIcEEESaIS5_EED1Ev, symObjAddr: 0x2190, symBinAddr: 0x100002A60, symSize: 0x5C }
  - { offsetInCU: 0x19479, offset: 0x19479, size: 0x8, addend: 0x0, symName: __ZNSt6vectorINSt7__cxx1112basic_stringIcSt11char_traitsIcESaIcEEESaIS5_EE9push_backERKS5_, symObjAddr: 0x21EC, symBinAddr: 0x100002ABC, symSize: 0x108 }
  - { offsetInCU: 0x1950B, offset: 0x1950B, size: 0x8, addend: 0x0, symName: __ZNSt12_Vector_baseINSt7__cxx1112basic_stringIcSt11char_traitsIcESaIcEEESaIS5_EED2Ev, symObjAddr: 0x2140, symBinAddr: 0x100002A10, symSize: 0x50 }
  - { offsetInCU: 0x19513, offset: 0x19513, size: 0x8, addend: 0x0, symName: __ZNSt6vectorINSt7__cxx1112basic_stringIcSt11char_traitsIcESaIcEEESaIS5_EED1Ev, symObjAddr: 0x2190, symBinAddr: 0x100002A60, symSize: 0x5C }
  - { offsetInCU: 0x19587, offset: 0x19587, size: 0x8, addend: 0x0, symName: __ZNSt12_Vector_baseINSt7__cxx1112basic_stringIcSt11char_traitsIcESaIcEEESaIS5_EE12_Vector_implC1Ev, symObjAddr: 0x2108, symBinAddr: 0x1000029D8, symSize: 0x38 }
  - { offsetInCU: 0x1958F, offset: 0x1958F, size: 0x8, addend: 0x0, symName: __ZNSt12_Vector_baseINSt7__cxx1112basic_stringIcSt11char_traitsIcESaIcEEESaIS5_EED2Ev, symObjAddr: 0x2140, symBinAddr: 0x100002A10, symSize: 0x50 }
  - { offsetInCU: 0x19669, offset: 0x19669, size: 0x8, addend: 0x0, symName: __ZNSt6vectorIP11Search_CellSaIS1_EE9push_backERKS1_, symObjAddr: 0x2034, symBinAddr: 0x100002904, symSize: 0xD4 }
  - { offsetInCU: 0x19671, offset: 0x19671, size: 0x8, addend: 0x0, symName: __ZNSt12_Vector_baseINSt7__cxx1112basic_stringIcSt11char_traitsIcESaIcEEESaIS5_EE12_Vector_implC1Ev, symObjAddr: 0x2108, symBinAddr: 0x1000029D8, symSize: 0x38 }
  - { offsetInCU: 0x1977E, offset: 0x1977E, size: 0x8, addend: 0x0, symName: __ZNSt6vectorIP11Search_CellSaIS1_EEC1ERKS3_, symObjAddr: 0x1F20, symBinAddr: 0x1000027F0, symSize: 0x114 }
  - { offsetInCU: 0x19786, offset: 0x19786, size: 0x8, addend: 0x0, symName: __ZNSt6vectorIP11Search_CellSaIS1_EE9push_backERKS1_, symObjAddr: 0x2034, symBinAddr: 0x100002904, symSize: 0xD4 }
  - { offsetInCU: 0x19884, offset: 0x19884, size: 0x8, addend: 0x0, symName: __ZNSt6vectorISt4pairIiiESaIS1_EEixEm, symObjAddr: 0x1EF8, symBinAddr: 0x1000027C8, symSize: 0x28 }
  - { offsetInCU: 0x1988C, offset: 0x1988C, size: 0x8, addend: 0x0, symName: __ZNSt6vectorIP11Search_CellSaIS1_EEC1ERKS3_, symObjAddr: 0x1F20, symBinAddr: 0x1000027F0, symSize: 0x114 }
  - { offsetInCU: 0x198C7, offset: 0x198C7, size: 0x8, addend: 0x0, symName: __ZNKSt6vectorISt4pairIiiESaIS1_EE4sizeEv, symObjAddr: 0x1ED0, symBinAddr: 0x1000027A0, symSize: 0x28 }
  - { offsetInCU: 0x198CF, offset: 0x198CF, size: 0x8, addend: 0x0, symName: __ZNSt6vectorISt4pairIiiESaIS1_EEixEm, symObjAddr: 0x1EF8, symBinAddr: 0x1000027C8, symSize: 0x28 }
  - { offsetInCU: 0x19942, offset: 0x19942, size: 0x8, addend: 0x0, symName: __ZNSt6vectorISt4pairIiiESaIS1_EED1Ev, symObjAddr: 0x1E74, symBinAddr: 0x100002744, symSize: 0x5C }
  - { offsetInCU: 0x1994A, offset: 0x1994A, size: 0x8, addend: 0x0, symName: __ZNKSt6vectorISt4pairIiiESaIS1_EE4sizeEv, symObjAddr: 0x1ED0, symBinAddr: 0x1000027A0, symSize: 0x28 }
  - { offsetInCU: 0x19A06, offset: 0x19A06, size: 0x8, addend: 0x0, symName: __ZNSt6vectorISt4pairIiiESaIS1_EEC1ESt16initializer_listIS1_ERKS2_, symObjAddr: 0x1E04, symBinAddr: 0x1000026D4, symSize: 0x70 }
  - { offsetInCU: 0x19A0E, offset: 0x19A0E, size: 0x8, addend: 0x0, symName: __ZNSt6vectorISt4pairIiiESaIS1_EED1Ev, symObjAddr: 0x1E74, symBinAddr: 0x100002744, symSize: 0x5C }
  - { offsetInCU: 0x19A99, offset: 0x19A99, size: 0x8, addend: 0x0, symName: __ZNSt6vectorIP11Search_CellSaIS1_EED1Ev, symObjAddr: 0x1DA8, symBinAddr: 0x100002678, symSize: 0x5C }
  - { offsetInCU: 0x19AA1, offset: 0x19AA1, size: 0x8, addend: 0x0, symName: __ZNSt6vectorISt4pairIiiESaIS1_EEC1ESt16initializer_listIS1_ERKS2_, symObjAddr: 0x1E04, symBinAddr: 0x1000026D4, symSize: 0x70 }
  - { offsetInCU: 0x19B33, offset: 0x19B33, size: 0x8, addend: 0x0, symName: __ZNSt12_Vector_baseIP11Search_CellSaIS1_EED2Ev, symObjAddr: 0x1D58, symBinAddr: 0x100002628, symSize: 0x50 }
  - { offsetInCU: 0x19B3B, offset: 0x19B3B, size: 0x8, addend: 0x0, symName: __ZNSt6vectorIP11Search_CellSaIS1_EED1Ev, symObjAddr: 0x1DA8, symBinAddr: 0x100002678, symSize: 0x5C }
  - { offsetInCU: 0x19BAF, offset: 0x19BAF, size: 0x8, addend: 0x0, symName: __ZNSt12_Vector_baseIP11Search_CellSaIS1_EE12_Vector_implC1Ev, symObjAddr: 0x1D20, symBinAddr: 0x1000025F0, symSize: 0x38 }
  - { offsetInCU: 0x19BB7, offset: 0x19BB7, size: 0x8, addend: 0x0, symName: __ZNSt12_Vector_baseIP11Search_CellSaIS1_EED2Ev, symObjAddr: 0x1D58, symBinAddr: 0x100002628, symSize: 0x50 }
  - { offsetInCU: 0x19BEC, offset: 0x19BEC, size: 0x8, addend: 0x0, symName: __ZNSt6vectorIP11Search_CellSaIS1_EEixEm, symObjAddr: 0x1CF8, symBinAddr: 0x1000025C8, symSize: 0x28 }
  - { offsetInCU: 0x19BF4, offset: 0x19BF4, size: 0x8, addend: 0x0, symName: __ZNSt12_Vector_baseIP11Search_CellSaIS1_EE12_Vector_implC1Ev, symObjAddr: 0x1D20, symBinAddr: 0x1000025F0, symSize: 0x38 }
  - { offsetInCU: 0x19C2F, offset: 0x19C2F, size: 0x8, addend: 0x0, symName: __ZNKSt6vectorIP11Search_CellSaIS1_EE4sizeEv, symObjAddr: 0x1CD0, symBinAddr: 0x1000025A0, symSize: 0x28 }
  - { offsetInCU: 0x19C37, offset: 0x19C37, size: 0x8, addend: 0x0, symName: __ZNSt6vectorIP11Search_CellSaIS1_EEixEm, symObjAddr: 0x1CF8, symBinAddr: 0x1000025C8, symSize: 0x28 }
  - { offsetInCU: 0x19C5E, offset: 0x19C5E, size: 0x8, addend: 0x0, symName: __ZNSt14priority_queueIP11Search_CellSt6vectorIS1_SaIS1_EE8CompareFE3popEv, symObjAddr: 0x1C84, symBinAddr: 0x100002554, symSize: 0x4C }
  - { offsetInCU: 0x19C66, offset: 0x19C66, size: 0x8, addend: 0x0, symName: __ZNKSt6vectorIP11Search_CellSaIS1_EE4sizeEv, symObjAddr: 0x1CD0, symBinAddr: 0x1000025A0, symSize: 0x28 }
  - { offsetInCU: 0x19C8D, offset: 0x19C8D, size: 0x8, addend: 0x0, symName: __ZNKSt14priority_queueIP11Search_CellSt6vectorIS1_SaIS1_EE8CompareFE3topEv, symObjAddr: 0x1C68, symBinAddr: 0x100002538, symSize: 0x1C }
  - { offsetInCU: 0x19C95, offset: 0x19C95, size: 0x8, addend: 0x0, symName: __ZNSt14priority_queueIP11Search_CellSt6vectorIS1_SaIS1_EE8CompareFE3popEv, symObjAddr: 0x1C84, symBinAddr: 0x100002554, symSize: 0x4C }
  - { offsetInCU: 0x19CBC, offset: 0x19CBC, size: 0x8, addend: 0x0, symName: __ZNKSt14priority_queueIP11Search_CellSt6vectorIS1_SaIS1_EE8CompareFE5emptyEv, symObjAddr: 0x1C48, symBinAddr: 0x100002518, symSize: 0x20 }
  - { offsetInCU: 0x19CC4, offset: 0x19CC4, size: 0x8, addend: 0x0, symName: __ZNKSt14priority_queueIP11Search_CellSt6vectorIS1_SaIS1_EE8CompareFE3topEv, symObjAddr: 0x1C68, symBinAddr: 0x100002538, symSize: 0x1C }
  - { offsetInCU: 0x19D39, offset: 0x19D39, size: 0x8, addend: 0x0, symName: __ZNSt8__detail18__to_chars_10_implIjEEvPcjT_, symObjAddr: 0x1AC4, symBinAddr: 0x100002394, symSize: 0x184 }
  - { offsetInCU: 0x19D41, offset: 0x19D41, size: 0x8, addend: 0x0, symName: __ZNKSt14priority_queueIP11Search_CellSt6vectorIS1_SaIS1_EE8CompareFE5emptyEv, symObjAddr: 0x1C48, symBinAddr: 0x100002518, symSize: 0x20 }
  - { offsetInCU: 0x19E6C, offset: 0x19E6C, size: 0x8, addend: 0x0, symName: __ZNSt7__cxx1112basic_stringIcSt11char_traitsIcESaIcEEC1IS3_EEmcRKS3_, symObjAddr: 0x1A58, symBinAddr: 0x100002328, symSize: 0x6C }
  - { offsetInCU: 0x19E74, offset: 0x19E74, size: 0x8, addend: 0x0, symName: __ZNSt8__detail18__to_chars_10_implIjEEvPcjT_, symObjAddr: 0x1AC4, symBinAddr: 0x100002394, symSize: 0x184 }
  - { offsetInCU: 0x19EEC, offset: 0x19EEC, size: 0x8, addend: 0x0, symName: __ZNSt7__cxx1112basic_stringIcSt11char_traitsIcESaIcEE12_Alloc_hiderD1Ev, symObjAddr: 0x1A2C, symBinAddr: 0x1000022FC, symSize: 0x2C }
  - { offsetInCU: 0x19EF4, offset: 0x19EF4, size: 0x8, addend: 0x0, symName: __ZNSt7__cxx1112basic_stringIcSt11char_traitsIcESaIcEEC1IS3_EEmcRKS3_, symObjAddr: 0x1A58, symBinAddr: 0x100002328, symSize: 0x6C }
  - { offsetInCU: 0x19F80, offset: 0x19F80, size: 0x8, addend: 0x0, symName: __ZNSt8__detail14__to_chars_lenIjEEjT_i, symObjAddr: 0x1954, symBinAddr: 0x100002224, symSize: 0xD8 }
  - { offsetInCU: 0x19F88, offset: 0x19F88, size: 0x8, addend: 0x0, symName: __ZNSt7__cxx1112basic_stringIcSt11char_traitsIcESaIcEE12_Alloc_hiderD1Ev, symObjAddr: 0x1A2C, symBinAddr: 0x1000022FC, symSize: 0x2C }
  - { offsetInCU: 0x1A046, offset: 0x1A046, size: 0x8, addend: 0x0, symName: __ZN9__gnu_cxx6__stoaIlicJiEEET0_PFT_PKT1_PPS3_DpT2_EPKcS5_PmS9_, symObjAddr: 0x184C, symBinAddr: 0x10000211C, symSize: 0x108 }
  - { offsetInCU: 0x1A04E, offset: 0x1A04E, size: 0x8, addend: 0x0, symName: __ZNSt8__detail14__to_chars_lenIjEEjT_i, symObjAddr: 0x1954, symBinAddr: 0x100002224, symSize: 0xD8 }
  - { offsetInCU: 0x1A1C4, offset: 0x1A1C4, size: 0x8, addend: 0x0, symName: __ZZN9__gnu_cxx6__stoaIlicJiEEET0_PFT_PKT1_PPS3_DpT2_EPKcS5_PmS9_EN11_Save_errnoC1Ev, symObjAddr: 0x178C, symBinAddr: 0x10000205C, symSize: 0x30 }
  - { offsetInCU: 0x1A1CC, offset: 0x1A1CC, size: 0x8, addend: 0x0, symName: __ZZN9__gnu_cxx6__stoaIlicJiEEET0_PFT_PKT1_PPS3_DpT2_EPKcS5_PmS9_EN11_Save_errnoD1Ev, symObjAddr: 0x17BC, symBinAddr: 0x10000208C, symSize: 0x50 }
  - { offsetInCU: 0x1A1F3, offset: 0x1A1F3, size: 0x8, addend: 0x0, symName: __ZZN9__gnu_cxx6__stoaIlicJiEEET0_PFT_PKT1_PPS3_DpT2_EPKcS5_PmS9_EN11_Save_errnoD1Ev, symObjAddr: 0x17BC, symBinAddr: 0x10000208C, symSize: 0x50 }
  - { offsetInCU: 0x1A1FB, offset: 0x1A1FB, size: 0x8, addend: 0x0, symName: __ZZN9__gnu_cxx6__stoaIlicJiEEET0_PFT_PKT1_PPS3_DpT2_EPKcS5_PmS9_EN10_Range_chk6_S_chkElSt17integral_constantIbLb1EE, symObjAddr: 0x180C, symBinAddr: 0x1000020DC, symSize: 0x40 }
  - { offsetInCU: 0x1A292, offset: 0x1A292, size: 0x8, addend: 0x0, symName: __ZZN9__gnu_cxx6__stoaIlicJiEEET0_PFT_PKT1_PPS3_DpT2_EPKcS5_PmS9_EN10_Range_chk6_S_chkElSt17integral_constantIbLb1EE, symObjAddr: 0x180C, symBinAddr: 0x1000020DC, symSize: 0x40 }
  - { offsetInCU: 0x1A29A, offset: 0x1A29A, size: 0x8, addend: 0x0, symName: __ZN9__gnu_cxx6__stoaIlicJiEEET0_PFT_PKT1_PPS3_DpT2_EPKcS5_PmS9_, symObjAddr: 0x184C, symBinAddr: 0x10000211C, symSize: 0x108 }
  - { offsetInCU: 0x1A2A9, offset: 0x1A2A9, size: 0x8, addend: 0x0, symName: __ZN9__gnu_cxx11char_traitsIcE6lengthEPKc, symObjAddr: 0x1730, symBinAddr: 0x100002000, symSize: 0x5C }
  - { offsetInCU: 0x1A2B1, offset: 0x1A2B1, size: 0x8, addend: 0x0, symName: __ZZN9__gnu_cxx6__stoaIlicJiEEET0_PFT_PKT1_PPS3_DpT2_EPKcS5_PmS9_EN11_Save_errnoC1Ev, symObjAddr: 0x178C, symBinAddr: 0x10000205C, symSize: 0x30 }
  - { offsetInCU: 0x1A2F7, offset: 0x1A2F7, size: 0x8, addend: 0x0, symName: _main, symObjAddr: 0x1490, symBinAddr: 0x100001D60, symSize: 0x2A0 }
  - { offsetInCU: 0x1A2FF, offset: 0x1A2FF, size: 0x8, addend: 0x0, symName: __ZN9__gnu_cxx11char_traitsIcE6lengthEPKc, symObjAddr: 0x1730, symBinAddr: 0x100002000, symSize: 0x5C }
  - { offsetInCU: 0x1A5BF, offset: 0x1A5BF, size: 0x8, addend: 0x0, symName: __Z6outputNSt7__cxx1112basic_stringIcSt11char_traitsIcESaIcEEERiRS4_, symObjAddr: 0x13A0, symBinAddr: 0x100001C70, symSize: 0xF0 }
  - { offsetInCU: 0x1A5C7, offset: 0x1A5C7, size: 0x8, addend: 0x0, symName: _main, symObjAddr: 0x1490, symBinAddr: 0x100001D60, symSize: 0x2A0 }
  - { offsetInCU: 0x1A659, offset: 0x1A659, size: 0x8, addend: 0x0, symName: __Z12Astar_searchNSt7__cxx1112basic_stringIcSt11char_traitsIcESaIcEEERiRS4_, symObjAddr: 0x988, symBinAddr: 0x100001258, symSize: 0xA18 }
  - { offsetInCU: 0x1A661, offset: 0x1A661, size: 0x8, addend: 0x0, symName: __Z6outputNSt7__cxx1112basic_stringIcSt11char_traitsIcESaIcEEERiRS4_, symObjAddr: 0x13A0, symBinAddr: 0x100001C70, symSize: 0xF0 }
  - { offsetInCU: 0x1AB4A, offset: 0x1AB4A, size: 0x8, addend: 0x0, symName: __ZNSt3mapISt4pairIiiEcSt4lessIS1_ESaIS0_IKS1_cEEED1Ev, symObjAddr: 0x968, symBinAddr: 0x100001238, symSize: 0x20 }
  - { offsetInCU: 0x1AB52, offset: 0x1AB52, size: 0x8, addend: 0x0, symName: __Z12Astar_searchNSt7__cxx1112basic_stringIcSt11char_traitsIcESaIcEEERiRS4_, symObjAddr: 0x988, symBinAddr: 0x100001258, symSize: 0xA18 }
  - { offsetInCU: 0x1ABBF, offset: 0x1ABBF, size: 0x8, addend: 0x0, symName: __ZNSt14priority_queueIP11Search_CellSt6vectorIS1_SaIS1_EE8CompareFEC1ERKS6_, symObjAddr: 0x940, symBinAddr: 0x100001210, symSize: 0x28 }
  - { offsetInCU: 0x1ABC7, offset: 0x1ABC7, size: 0x8, addend: 0x0, symName: __ZNSt3mapISt4pairIiiEcSt4lessIS1_ESaIS0_IKS1_cEEED1Ev, symObjAddr: 0x968, symBinAddr: 0x100001238, symSize: 0x20 }
  - { offsetInCU: 0x1AC21, offset: 0x1AC21, size: 0x8, addend: 0x0, symName: __ZNSt14priority_queueIP11Search_CellSt6vectorIS1_SaIS1_EE8CompareFED1Ev, symObjAddr: 0x920, symBinAddr: 0x1000011F0, symSize: 0x20 }
  - { offsetInCU: 0x1AC29, offset: 0x1AC29, size: 0x8, addend: 0x0, symName: __ZNSt14priority_queueIP11Search_CellSt6vectorIS1_SaIS1_EE8CompareFEC1ERKS6_, symObjAddr: 0x940, symBinAddr: 0x100001210, symSize: 0x28 }
  - { offsetInCU: 0x1AC6E, offset: 0x1AC6E, size: 0x8, addend: 0x0, symName: __ZNSt6vectorINSt7__cxx1112basic_stringIcSt11char_traitsIcESaIcEEESaIS5_EEC1Ev, symObjAddr: 0x900, symBinAddr: 0x1000011D0, symSize: 0x20 }
  - { offsetInCU: 0x1AC76, offset: 0x1AC76, size: 0x8, addend: 0x0, symName: __ZNSt14priority_queueIP11Search_CellSt6vectorIS1_SaIS1_EE8CompareFED1Ev, symObjAddr: 0x920, symBinAddr: 0x1000011F0, symSize: 0x20 }
  - { offsetInCU: 0x1ACBC, offset: 0x1ACBC, size: 0x8, addend: 0x0, symName: __ZNSt12_Vector_baseINSt7__cxx1112basic_stringIcSt11char_traitsIcESaIcEEESaIS5_EEC2Ev, symObjAddr: 0x8E0, symBinAddr: 0x1000011B0, symSize: 0x20 }
  - { offsetInCU: 0x1ACC4, offset: 0x1ACC4, size: 0x8, addend: 0x0, symName: __ZNSt6vectorINSt7__cxx1112basic_stringIcSt11char_traitsIcESaIcEEESaIS5_EEC1Ev, symObjAddr: 0x900, symBinAddr: 0x1000011D0, symSize: 0x20 }
  - { offsetInCU: 0x1AD23, offset: 0x1AD23, size: 0x8, addend: 0x0, symName: __ZNSt12_Vector_baseINSt7__cxx1112basic_stringIcSt11char_traitsIcESaIcEEESaIS5_EE12_Vector_implD1Ev, symObjAddr: 0x8B4, symBinAddr: 0x100001184, symSize: 0x2C }
  - { offsetInCU: 0x1AD2B, offset: 0x1AD2B, size: 0x8, addend: 0x0, symName: __ZNSt12_Vector_baseINSt7__cxx1112basic_stringIcSt11char_traitsIcESaIcEEESaIS5_EEC2Ev, symObjAddr: 0x8E0, symBinAddr: 0x1000011B0, symSize: 0x20 }
  - { offsetInCU: 0x1AD72, offset: 0x1AD72, size: 0x8, addend: 0x0, symName: __Z12cellCanReachP11Search_CellPP8Map_CelliiiSt6vectorIS0_SaIS0_EESt4pairIiiE, symObjAddr: 0x534, symBinAddr: 0x100000E04, symSize: 0x380 }
  - { offsetInCU: 0x1AD7A, offset: 0x1AD7A, size: 0x8, addend: 0x0, symName: __ZNSt12_Vector_baseINSt7__cxx1112basic_stringIcSt11char_traitsIcESaIcEEESaIS5_EE12_Vector_implD1Ev, symObjAddr: 0x8B4, symBinAddr: 0x100001184, symSize: 0x2C }
  - { offsetInCU: 0x1AF95, offset: 0x1AF95, size: 0x8, addend: 0x0, symName: __ZSt7forwardIiEOT_RNSt16remove_referenceIS0_E4typeE, symObjAddr: 0x520, symBinAddr: 0x100000DF0, symSize: 0x14 }
  - { offsetInCU: 0x1AF9D, offset: 0x1AF9D, size: 0x8, addend: 0x0, symName: __Z12cellCanReachP11Search_CellPP8Map_CelliiiSt6vectorIS0_SaIS0_EESt4pairIiiE, symObjAddr: 0x534, symBinAddr: 0x100000E04, symSize: 0x380 }
  - { offsetInCU: 0x1B01A, offset: 0x1B01A, size: 0x8, addend: 0x0, symName: __ZNSt4pairIiiEC1IiiLb1EEEOT_OT0_, symObjAddr: 0x4D8, symBinAddr: 0x100000DA8, symSize: 0x48 }
  - { offsetInCU: 0x1B022, offset: 0x1B022, size: 0x8, addend: 0x0, symName: __ZSt7forwardIiEOT_RNSt16remove_referenceIS0_E4typeE, symObjAddr: 0x520, symBinAddr: 0x100000DF0, symSize: 0x14 }
  - { offsetInCU: 0x1B09A, offset: 0x1B09A, size: 0x8, addend: 0x0, symName: __ZNSt6vectorIP11Search_CellSaIS1_EEC1Ev, symObjAddr: 0x4B8, symBinAddr: 0x100000D88, symSize: 0x20 }
  - { offsetInCU: 0x1B0A2, offset: 0x1B0A2, size: 0x8, addend: 0x0, symName: __ZNSt4pairIiiEC1IiiLb1EEEOT_OT0_, symObjAddr: 0x4D8, symBinAddr: 0x100000DA8, symSize: 0x48 }
  - { offsetInCU: 0x1B0E8, offset: 0x1B0E8, size: 0x8, addend: 0x0, symName: __ZNSt12_Vector_baseIP11Search_CellSaIS1_EEC2Ev, symObjAddr: 0x498, symBinAddr: 0x100000D68, symSize: 0x20 }
  - { offsetInCU: 0x1B0F0, offset: 0x1B0F0, size: 0x8, addend: 0x0, symName: __ZNSt6vectorIP11Search_CellSaIS1_EEC1Ev, symObjAddr: 0x4B8, symBinAddr: 0x100000D88, symSize: 0x20 }
  - { offsetInCU: 0x1B14F, offset: 0x1B14F, size: 0x8, addend: 0x0, symName: __ZNSt12_Vector_baseIP11Search_CellSaIS1_EE12_Vector_implD1Ev, symObjAddr: 0x46C, symBinAddr: 0x100000D3C, symSize: 0x2C }
  - { offsetInCU: 0x1B157, offset: 0x1B157, size: 0x8, addend: 0x0, symName: __ZNSt12_Vector_baseIP11Search_CellSaIS1_EEC2Ev, symObjAddr: 0x498, symBinAddr: 0x100000D68, symSize: 0x20 }
  - { offsetInCU: 0x1B1A7, offset: 0x1B1A7, size: 0x8, addend: 0x0, symName: __Z10isInVectorSt6vectorIP11Search_CellSaIS1_EEiii, symObjAddr: 0x37C, symBinAddr: 0x100000C4C, symSize: 0xF0 }
  - { offsetInCU: 0x1B1AF, offset: 0x1B1AF, size: 0x8, addend: 0x0, symName: __ZNSt12_Vector_baseIP11Search_CellSaIS1_EE12_Vector_implD1Ev, symObjAddr: 0x46C, symBinAddr: 0x100000D3C, symSize: 0x2C }
  - { offsetInCU: 0x1B271, offset: 0x1B271, size: 0x8, addend: 0x0, symName: __Z17isInPriorityQueueSt14priority_queueIP11Search_CellSt6vectorIS1_SaIS1_EE8CompareFES1_, symObjAddr: 0x300, symBinAddr: 0x100000BD0, symSize: 0x7C }
  - { offsetInCU: 0x1B279, offset: 0x1B279, size: 0x8, addend: 0x0, symName: __Z10isInVectorSt6vectorIP11Search_CellSaIS1_EEiii, symObjAddr: 0x37C, symBinAddr: 0x100000C4C, symSize: 0xF0 }
  - { offsetInCU: 0x1B2A9, offset: 0x1B2A9, size: 0x8, addend: 0x0, symName: __Z11isEqualCellP11Search_CellS0_, symObjAddr: 0x298, symBinAddr: 0x100000B68, symSize: 0x68 }
  - { offsetInCU: 0x1B2B1, offset: 0x1B2B1, size: 0x8, addend: 0x0, symName: __Z17isInPriorityQueueSt14priority_queueIP11Search_CellSt6vectorIS1_SaIS1_EE8CompareFES1_, symObjAddr: 0x300, symBinAddr: 0x100000BD0, symSize: 0x7C }
  - { offsetInCU: 0x1B30D, offset: 0x1B30D, size: 0x8, addend: 0x0, symName: __Z17Heuristic_FuntionP11Search_CellSt4pairIiiE, symObjAddr: 0x250, symBinAddr: 0x100000B20, symSize: 0x48 }
  - { offsetInCU: 0x1B315, offset: 0x1B315, size: 0x8, addend: 0x0, symName: __Z11isEqualCellP11Search_CellS0_, symObjAddr: 0x298, symBinAddr: 0x100000B68, symSize: 0x68 }
  - { offsetInCU: 0x1B318, offset: 0x1B318, size: 0x8, addend: 0x0, symName: __ZNK8CompareFclEPK11Search_CellS2_, symObjAddr: 0x204, symBinAddr: 0x100000AD4, symSize: 0x4C }
  - { offsetInCU: 0x1B320, offset: 0x1B320, size: 0x8, addend: 0x0, symName: __Z17Heuristic_FuntionP11Search_CellSt4pairIiiE, symObjAddr: 0x250, symBinAddr: 0x100000B20, symSize: 0x48 }
  - { offsetInCU: 0x1B36D, offset: 0x1B36D, size: 0x8, addend: 0x0, symName: __ZNSt15_Rb_tree_header8_M_resetEv, symObjAddr: 0x1C8, symBinAddr: 0x100000A98, symSize: 0x3C }
  - { offsetInCU: 0x1B375, offset: 0x1B375, size: 0x8, addend: 0x0, symName: __ZNK8CompareFclEPK11Search_CellS2_, symObjAddr: 0x204, symBinAddr: 0x100000AD4, symSize: 0x4C }
  - { offsetInCU: 0x1B3D0, offset: 0x1B3D0, size: 0x8, addend: 0x0, symName: __ZNSt15_Rb_tree_headerC2Ev, symObjAddr: 0x1A0, symBinAddr: 0x100000A70, symSize: 0x28 }
  - { offsetInCU: 0x1B3D8, offset: 0x1B3D8, size: 0x8, addend: 0x0, symName: __ZNSt15_Rb_tree_header8_M_resetEv, symObjAddr: 0x1C8, symBinAddr: 0x100000A98, symSize: 0x3C }
  - { offsetInCU: 0x1B40B, offset: 0x1B40B, size: 0x8, addend: 0x0, symName: __ZStorSt13_Ios_OpenmodeS_, symObjAddr: 0x180, symBinAddr: 0x100000A50, symSize: 0x20 }
  - { offsetInCU: 0x1B413, offset: 0x1B413, size: 0x8, addend: 0x0, symName: __ZNSt15_Rb_tree_headerC2Ev, symObjAddr: 0x1A0, symBinAddr: 0x100000A70, symSize: 0x28 }
  - { offsetInCU: 0x1B45C, offset: 0x1B45C, size: 0x8, addend: 0x0, symName: __ZNSt7__cxx119to_stringEi, symObjAddr: 0xBC, symBinAddr: 0x10000098C, symSize: 0xC4 }
  - { offsetInCU: 0x1B464, offset: 0x1B464, size: 0x8, addend: 0x0, symName: __ZStorSt13_Ios_OpenmodeS_, symObjAddr: 0x180, symBinAddr: 0x100000A50, symSize: 0x20 }
  - { offsetInCU: 0x1B57D, offset: 0x1B57D, size: 0x8, addend: 0x0, symName: __ZNSt7__cxx114stoiERKNS_12basic_stringIcSt11char_traitsIcESaIcEEEPmi, symObjAddr: 0x78, symBinAddr: 0x100000948, symSize: 0x44 }
  - { offsetInCU: 0x1B585, offset: 0x1B585, size: 0x8, addend: 0x0, symName: __ZNSt7__cxx119to_stringEi, symObjAddr: 0xBC, symBinAddr: 0x10000098C, symSize: 0xC4 }
  - { offsetInCU: 0x1B595, offset: 0x1B595, size: 0x8, addend: 0x0, symName: __ZNSt11char_traitsIcE6lengthEPKc, symObjAddr: 0x38, symBinAddr: 0x100000908, symSize: 0x40 }
  - { offsetInCU: 0x1B59D, offset: 0x1B59D, size: 0x8, addend: 0x0, symName: __ZNSt7__cxx114stoiERKNS_12basic_stringIcSt11char_traitsIcESaIcEEEPmi, symObjAddr: 0x78, symBinAddr: 0x100000948, symSize: 0x44 }
  - { offsetInCU: 0x1B5D5, offset: 0x1B5D5, size: 0x8, addend: 0x0, symName: __ZdlPvS_, symObjAddr: 0x20, symBinAddr: 0x1000008F0, symSize: 0x18 }
  - { offsetInCU: 0x1B5DD, offset: 0x1B5DD, size: 0x8, addend: 0x0, symName: __ZNSt11char_traitsIcE6lengthEPKc, symObjAddr: 0x38, symBinAddr: 0x100000908, symSize: 0x40 }
  - { offsetInCU: 0x1B612, offset: 0x1B612, size: 0x8, addend: 0x0, symName: __ZnwmPv, symObjAddr: 0x8, symBinAddr: 0x1000008D8, symSize: 0x18 }
  - { offsetInCU: 0x1B61A, offset: 0x1B61A, size: 0x8, addend: 0x0, symName: __ZdlPvS_, symObjAddr: 0x20, symBinAddr: 0x1000008F0, symSize: 0x18 }
  - { offsetInCU: 0x1B687, offset: 0x1B687, size: 0x8, addend: 0x0, symName: __ZSt23__is_constant_evaluatedv, symObjAddr: 0x0, symBinAddr: 0x1000008D0, symSize: 0x8 }
  - { offsetInCU: 0x1B68F, offset: 0x1B68F, size: 0x8, addend: 0x0, symName: __ZnwmPv, symObjAddr: 0x8, symBinAddr: 0x1000008D8, symSize: 0x18 }
...
